; Listing generated by Microsoft (R) Optimizing Compiler Version 19.27.29111.0 

	TITLE	F:\Téléchargements\solution_lab_apprentissage - Copie\Common\fuzzy\FuzzyOperators.cpp
	.686P
	.XMM
	include listing.inc
	.model	flat

INCLUDELIB LIBCMTD
INCLUDELIB OLDNAMES

CONST	SEGMENT
$SG47527 DB	'invalid argument', 00H
	ORG $+3
$SG47528 DB	'%s', 00H
	ORG $+1
$SG47529 DB	'C:\Program Files (x86)\Microsoft Visual Studio\2019\Comm'
	DB	'unity\VC\Tools\MSVC\14.27.29110\include\xmemory', 00H
$SG47530 DB	'C', 00H, ':', 00H, '\', 00H, 'P', 00H, 'r', 00H, 'o', 00H
	DB	'g', 00H, 'r', 00H, 'a', 00H, 'm', 00H, ' ', 00H, 'F', 00H, 'i'
	DB	00H, 'l', 00H, 'e', 00H, 's', 00H, ' ', 00H, '(', 00H, 'x', 00H
	DB	'8', 00H, '6', 00H, ')', 00H, '\', 00H, 'M', 00H, 'i', 00H, 'c'
	DB	00H, 'r', 00H, 'o', 00H, 's', 00H, 'o', 00H, 'f', 00H, 't', 00H
	DB	' ', 00H, 'V', 00H, 'i', 00H, 's', 00H, 'u', 00H, 'a', 00H, 'l'
	DB	00H, ' ', 00H, 'S', 00H, 't', 00H, 'u', 00H, 'd', 00H, 'i', 00H
	DB	'o', 00H, '\', 00H, '2', 00H, '0', 00H, '1', 00H, '9', 00H, '\'
	DB	00H, 'C', 00H, 'o', 00H, 'm', 00H, 'm', 00H, 'u', 00H, 'n', 00H
	DB	'i', 00H, 't', 00H, 'y', 00H, '\', 00H, 'V', 00H, 'C', 00H, '\'
	DB	00H, 'T', 00H, 'o', 00H, 'o', 00H, 'l', 00H, 's', 00H, '\', 00H
	DB	'M', 00H, 'S', 00H, 'V', 00H, 'C', 00H, '\', 00H, '1', 00H, '4'
	DB	00H, '.', 00H, '2', 00H, '7', 00H, '.', 00H, '2', 00H, '9', 00H
	DB	'1', 00H, '1', 00H, '0', 00H, '\', 00H, 'i', 00H, 'n', 00H, 'c'
	DB	00H, 'l', 00H, 'u', 00H, 'd', 00H, 'e', 00H, '\', 00H, 'x', 00H
	DB	'm', 00H, 'e', 00H, 'm', 00H, 'o', 00H, 'r', 00H, 'y', 00H, 00H
	DB	00H
$SG47531 DB	's', 00H, 't', 00H, 'd', 00H, ':', 00H, ':', 00H, '_', 00H
	DB	'A', 00H, 'l', 00H, 'l', 00H, 'o', 00H, 'c', 00H, 'a', 00H, 't'
	DB	00H, 'e', 00H, '_', 00H, 'm', 00H, 'a', 00H, 'n', 00H, 'u', 00H
	DB	'a', 00H, 'l', 00H, 'l', 00H, 'y', 00H, '_', 00H, 'v', 00H, 'e'
	DB	00H, 'c', 00H, 't', 00H, 'o', 00H, 'r', 00H, '_', 00H, 'a', 00H
	DB	'l', 00H, 'i', 00H, 'g', 00H, 'n', 00H, 'e', 00H, 'd', 00H, 00H
	DB	00H
	ORG $+2
$SG47532 DB	'"', 00H, 'i', 00H, 'n', 00H, 'v', 00H, 'a', 00H, 'l', 00H
	DB	'i', 00H, 'd', 00H, ' ', 00H, 'a', 00H, 'r', 00H, 'g', 00H, 'u'
	DB	00H, 'm', 00H, 'e', 00H, 'n', 00H, 't', 00H, '"', 00H, 00H, 00H
CONST	ENDS
PUBLIC	?__empty_global_delete@@YAXPAX@Z		; __empty_global_delete
PUBLIC	?__empty_global_delete@@YAXPAXI@Z		; __empty_global_delete
PUBLIC	??2@YAPAXIPAX@Z					; operator new
PUBLIC	?max@?$numeric_limits@H@std@@SAHXZ		; std::numeric_limits<int>::max
PUBLIC	??0exception@std@@QAE@QBDH@Z			; std::exception::exception
PUBLIC	??0exception@std@@QAE@ABV01@@Z			; std::exception::exception
PUBLIC	??1exception@std@@UAE@XZ			; std::exception::~exception
PUBLIC	?what@exception@std@@UBEPBDXZ			; std::exception::what
PUBLIC	??_Gexception@std@@UAEPAXI@Z			; std::exception::`scalar deleting destructor'
PUBLIC	??0bad_alloc@std@@AAE@QBD@Z			; std::bad_alloc::bad_alloc
PUBLIC	??1bad_alloc@std@@UAE@XZ			; std::bad_alloc::~bad_alloc
PUBLIC	??0bad_alloc@std@@QAE@ABV01@@Z			; std::bad_alloc::bad_alloc
PUBLIC	??_Gbad_alloc@std@@UAEPAXI@Z			; std::bad_alloc::`scalar deleting destructor'
PUBLIC	??0bad_array_new_length@std@@QAE@XZ		; std::bad_array_new_length::bad_array_new_length
PUBLIC	??1bad_array_new_length@std@@UAE@XZ		; std::bad_array_new_length::~bad_array_new_length
PUBLIC	??0bad_array_new_length@std@@QAE@ABV01@@Z	; std::bad_array_new_length::bad_array_new_length
PUBLIC	??_Gbad_array_new_length@std@@UAEPAXI@Z		; std::bad_array_new_length::`scalar deleting destructor'
PUBLIC	?_Throw_bad_array_new_length@std@@YAXXZ		; std::_Throw_bad_array_new_length
PUBLIC	?_Allocate@_Default_allocate_traits@std@@SAPAXI@Z ; std::_Default_allocate_traits::_Allocate
PUBLIC	?_Adjust_manually_vector_aligned@std@@YAXAAPAXAAI@Z ; std::_Adjust_manually_vector_aligned
PUBLIC	??0_Container_proxy@std@@QAE@PAU_Container_base12@1@@Z ; std::_Container_proxy::_Container_proxy
PUBLIC	??0_Container_base12@std@@QAE@XZ		; std::_Container_base12::_Container_base12
PUBLIC	?_Orphan_all@_Container_base12@std@@QAEXXZ	; std::_Container_base12::_Orphan_all
PUBLIC	??0_Iterator_base12@std@@QAE@XZ			; std::_Iterator_base12::_Iterator_base12
PUBLIC	??4_Iterator_base12@std@@QAEAAU01@ABU01@@Z	; std::_Iterator_base12::operator=
PUBLIC	??1_Iterator_base12@std@@QAE@XZ			; std::_Iterator_base12::~_Iterator_base12
PUBLIC	?_Adopt@_Iterator_base12@std@@QAEXPBU_Container_base12@2@@Z ; std::_Iterator_base12::_Adopt
PUBLIC	?_Getcont@_Iterator_base12@std@@QBEPBU_Container_base12@2@XZ ; std::_Iterator_base12::_Getcont
PUBLIC	?_Orphan_me@_Iterator_base12@std@@QAEXXZ	; std::_Iterator_base12::_Orphan_me
PUBLIC	??1FuzzyTerm@@UAE@XZ				; FuzzyTerm::~FuzzyTerm
PUBLIC	??0FuzzyTerm@@QAE@XZ				; FuzzyTerm::FuzzyTerm
PUBLIC	??_GFuzzyTerm@@UAEPAXI@Z			; FuzzyTerm::`scalar deleting destructor'
PUBLIC	??0?$allocator@PAVFuzzyTerm@@@std@@QAE@XZ	; std::allocator<FuzzyTerm *>::allocator<FuzzyTerm *>
PUBLIC	?deallocate@?$allocator@PAVFuzzyTerm@@@std@@QAEXQAPAVFuzzyTerm@@I@Z ; std::allocator<FuzzyTerm *>::deallocate
PUBLIC	?allocate@?$allocator@PAVFuzzyTerm@@@std@@QAEPAPAVFuzzyTerm@@I@Z ; std::allocator<FuzzyTerm *>::allocate
PUBLIC	?max_size@?$_Default_allocator_traits@V?$allocator@PAVFuzzyTerm@@@std@@@std@@SAIABV?$allocator@PAVFuzzyTerm@@@2@@Z ; std::_Default_allocator_traits<std::allocator<FuzzyTerm *> >::max_size
PUBLIC	??0?$vector@PAVFuzzyTerm@@V?$allocator@PAVFuzzyTerm@@@std@@@std@@QAE@XZ ; std::vector<FuzzyTerm *,std::allocator<FuzzyTerm *> >::vector<FuzzyTerm *,std::allocator<FuzzyTerm *> >
PUBLIC	??1?$vector@PAVFuzzyTerm@@V?$allocator@PAVFuzzyTerm@@@std@@@std@@QAE@XZ ; std::vector<FuzzyTerm *,std::allocator<FuzzyTerm *> >::~vector<FuzzyTerm *,std::allocator<FuzzyTerm *> >
PUBLIC	?push_back@?$vector@PAVFuzzyTerm@@V?$allocator@PAVFuzzyTerm@@@std@@@std@@QAEX$$QAPAVFuzzyTerm@@@Z ; std::vector<FuzzyTerm *,std::allocator<FuzzyTerm *> >::push_back
PUBLIC	?begin@?$vector@PAVFuzzyTerm@@V?$allocator@PAVFuzzyTerm@@@std@@@std@@QAE?AV?$_Vector_iterator@V?$_Vector_val@U?$_Simple_types@PAVFuzzyTerm@@@std@@@std@@@2@XZ ; std::vector<FuzzyTerm *,std::allocator<FuzzyTerm *> >::begin
PUBLIC	?begin@?$vector@PAVFuzzyTerm@@V?$allocator@PAVFuzzyTerm@@@std@@@std@@QBE?AV?$_Vector_const_iterator@V?$_Vector_val@U?$_Simple_types@PAVFuzzyTerm@@@std@@@std@@@2@XZ ; std::vector<FuzzyTerm *,std::allocator<FuzzyTerm *> >::begin
PUBLIC	?end@?$vector@PAVFuzzyTerm@@V?$allocator@PAVFuzzyTerm@@@std@@@std@@QAE?AV?$_Vector_iterator@V?$_Vector_val@U?$_Simple_types@PAVFuzzyTerm@@@std@@@std@@@2@XZ ; std::vector<FuzzyTerm *,std::allocator<FuzzyTerm *> >::end
PUBLIC	?end@?$vector@PAVFuzzyTerm@@V?$allocator@PAVFuzzyTerm@@@std@@@std@@QBE?AV?$_Vector_const_iterator@V?$_Vector_val@U?$_Simple_types@PAVFuzzyTerm@@@std@@@std@@@2@XZ ; std::vector<FuzzyTerm *,std::allocator<FuzzyTerm *> >::end
PUBLIC	?max_size@?$vector@PAVFuzzyTerm@@V?$allocator@PAVFuzzyTerm@@@std@@@std@@QBEIXZ ; std::vector<FuzzyTerm *,std::allocator<FuzzyTerm *> >::max_size
PUBLIC	?capacity@?$vector@PAVFuzzyTerm@@V?$allocator@PAVFuzzyTerm@@@std@@@std@@QBEIXZ ; std::vector<FuzzyTerm *,std::allocator<FuzzyTerm *> >::capacity
PUBLIC	?_Umove@?$vector@PAVFuzzyTerm@@V?$allocator@PAVFuzzyTerm@@@std@@@std@@AAEPAPAVFuzzyTerm@@PAPAV3@00@Z ; std::vector<FuzzyTerm *,std::allocator<FuzzyTerm *> >::_Umove
PUBLIC	?_Umove_if_noexcept1@?$vector@PAVFuzzyTerm@@V?$allocator@PAVFuzzyTerm@@@std@@@std@@AAEXPAPAVFuzzyTerm@@00U?$integral_constant@_N$00@2@@Z ; std::vector<FuzzyTerm *,std::allocator<FuzzyTerm *> >::_Umove_if_noexcept1
PUBLIC	?_Umove_if_noexcept@?$vector@PAVFuzzyTerm@@V?$allocator@PAVFuzzyTerm@@@std@@@std@@AAEXPAPAVFuzzyTerm@@00@Z ; std::vector<FuzzyTerm *,std::allocator<FuzzyTerm *> >::_Umove_if_noexcept
PUBLIC	?_Destroy@?$vector@PAVFuzzyTerm@@V?$allocator@PAVFuzzyTerm@@@std@@@std@@AAEXPAPAVFuzzyTerm@@0@Z ; std::vector<FuzzyTerm *,std::allocator<FuzzyTerm *> >::_Destroy
PUBLIC	?_Calculate_growth@?$vector@PAVFuzzyTerm@@V?$allocator@PAVFuzzyTerm@@@std@@@std@@ABEII@Z ; std::vector<FuzzyTerm *,std::allocator<FuzzyTerm *> >::_Calculate_growth
PUBLIC	?_Change_array@?$vector@PAVFuzzyTerm@@V?$allocator@PAVFuzzyTerm@@@std@@@std@@AAEXQAPAVFuzzyTerm@@II@Z ; std::vector<FuzzyTerm *,std::allocator<FuzzyTerm *> >::_Change_array
PUBLIC	?_Tidy@?$vector@PAVFuzzyTerm@@V?$allocator@PAVFuzzyTerm@@@std@@@std@@AAEXXZ ; std::vector<FuzzyTerm *,std::allocator<FuzzyTerm *> >::_Tidy
PUBLIC	?_Xlength@?$vector@PAVFuzzyTerm@@V?$allocator@PAVFuzzyTerm@@@std@@@std@@CAXXZ ; std::vector<FuzzyTerm *,std::allocator<FuzzyTerm *> >::_Xlength
PUBLIC	?_Orphan_range@?$vector@PAVFuzzyTerm@@V?$allocator@PAVFuzzyTerm@@@std@@@std@@ABEXPAPAVFuzzyTerm@@0@Z ; std::vector<FuzzyTerm *,std::allocator<FuzzyTerm *> >::_Orphan_range
PUBLIC	?_Getal@?$vector@PAVFuzzyTerm@@V?$allocator@PAVFuzzyTerm@@@std@@@std@@AAEAAV?$allocator@PAVFuzzyTerm@@@2@XZ ; std::vector<FuzzyTerm *,std::allocator<FuzzyTerm *> >::_Getal
PUBLIC	?_Getal@?$vector@PAVFuzzyTerm@@V?$allocator@PAVFuzzyTerm@@@std@@@std@@ABEABV?$allocator@PAVFuzzyTerm@@@2@XZ ; std::vector<FuzzyTerm *,std::allocator<FuzzyTerm *> >::_Getal
PUBLIC	??0?$_Vector_val@U?$_Simple_types@PAVFuzzyTerm@@@std@@@std@@QAE@XZ ; std::_Vector_val<std::_Simple_types<FuzzyTerm *> >::_Vector_val<std::_Simple_types<FuzzyTerm *> >
PUBLIC	?_Get_first@?$_Compressed_pair@V?$allocator@PAVFuzzyTerm@@@std@@V?$_Vector_val@U?$_Simple_types@PAVFuzzyTerm@@@std@@@2@$00@std@@QAEAAV?$allocator@PAVFuzzyTerm@@@2@XZ ; std::_Compressed_pair<std::allocator<FuzzyTerm *>,std::_Vector_val<std::_Simple_types<FuzzyTerm *> >,1>::_Get_first
PUBLIC	?_Get_first@?$_Compressed_pair@V?$allocator@PAVFuzzyTerm@@@std@@V?$_Vector_val@U?$_Simple_types@PAVFuzzyTerm@@@std@@@2@$00@std@@QBEABV?$allocator@PAVFuzzyTerm@@@2@XZ ; std::_Compressed_pair<std::allocator<FuzzyTerm *>,std::_Vector_val<std::_Simple_types<FuzzyTerm *> >,1>::_Get_first
PUBLIC	??1FzAND@@UAE@XZ				; FzAND::~FzAND
PUBLIC	??0FzAND@@QAE@ABV0@@Z				; FzAND::FzAND
PUBLIC	??0FzAND@@QAE@AAVFuzzyTerm@@0@Z			; FzAND::FzAND
PUBLIC	??0FzAND@@QAE@AAVFuzzyTerm@@00@Z		; FzAND::FzAND
PUBLIC	??0FzAND@@QAE@AAVFuzzyTerm@@000@Z		; FzAND::FzAND
PUBLIC	?Clone@FzAND@@UBEPAVFuzzyTerm@@XZ		; FzAND::Clone
PUBLIC	?GetDOM@FzAND@@UBENXZ				; FzAND::GetDOM
PUBLIC	?ClearDOM@FzAND@@UAEXXZ				; FzAND::ClearDOM
PUBLIC	?ORwithDOM@FzAND@@UAEXN@Z			; FzAND::ORwithDOM
PUBLIC	??_GFzAND@@UAEPAXI@Z				; FzAND::`scalar deleting destructor'
PUBLIC	??1FzOR@@UAE@XZ					; FzOR::~FzOR
PUBLIC	??0FzOR@@QAE@ABV0@@Z				; FzOR::FzOR
PUBLIC	??0FzOR@@QAE@AAVFuzzyTerm@@0@Z			; FzOR::FzOR
PUBLIC	??0FzOR@@QAE@AAVFuzzyTerm@@00@Z			; FzOR::FzOR
PUBLIC	??0FzOR@@QAE@AAVFuzzyTerm@@000@Z		; FzOR::FzOR
PUBLIC	?Clone@FzOR@@UBEPAVFuzzyTerm@@XZ		; FzOR::Clone
PUBLIC	?GetDOM@FzOR@@UBENXZ				; FzOR::GetDOM
PUBLIC	?ClearDOM@FzOR@@UAEXXZ				; FzOR::ClearDOM
PUBLIC	?ORwithDOM@FzOR@@UAEXN@Z			; FzOR::ORwithDOM
PUBLIC	??_GFzOR@@UAEPAXI@Z				; FzOR::`scalar deleting destructor'
PUBLIC	??0?$_Vector_const_iterator@V?$_Vector_val@U?$_Simple_types@PAVFuzzyTerm@@@std@@@std@@@std@@QAE@XZ ; std::_Vector_const_iterator<std::_Vector_val<std::_Simple_types<FuzzyTerm *> > >::_Vector_const_iterator<std::_Vector_val<std::_Simple_types<FuzzyTerm *> > >
PUBLIC	??0?$_Vector_const_iterator@V?$_Vector_val@U?$_Simple_types@PAVFuzzyTerm@@@std@@@std@@@std@@QAE@PAPAVFuzzyTerm@@PBU_Container_base12@1@@Z ; std::_Vector_const_iterator<std::_Vector_val<std::_Simple_types<FuzzyTerm *> > >::_Vector_const_iterator<std::_Vector_val<std::_Simple_types<FuzzyTerm *> > >
PUBLIC	??D?$_Vector_const_iterator@V?$_Vector_val@U?$_Simple_types@PAVFuzzyTerm@@@std@@@std@@@std@@QBEABQAVFuzzyTerm@@XZ ; std::_Vector_const_iterator<std::_Vector_val<std::_Simple_types<FuzzyTerm *> > >::operator*
PUBLIC	??E?$_Vector_const_iterator@V?$_Vector_val@U?$_Simple_types@PAVFuzzyTerm@@@std@@@std@@@std@@QAEAAV01@XZ ; std::_Vector_const_iterator<std::_Vector_val<std::_Simple_types<FuzzyTerm *> > >::operator++
PUBLIC	??8?$_Vector_const_iterator@V?$_Vector_val@U?$_Simple_types@PAVFuzzyTerm@@@std@@@std@@@std@@QBE_NABV01@@Z ; std::_Vector_const_iterator<std::_Vector_val<std::_Simple_types<FuzzyTerm *> > >::operator==
PUBLIC	??9?$_Vector_const_iterator@V?$_Vector_val@U?$_Simple_types@PAVFuzzyTerm@@@std@@@std@@@std@@QBE_NABV01@@Z ; std::_Vector_const_iterator<std::_Vector_val<std::_Simple_types<FuzzyTerm *> > >::operator!=
PUBLIC	?_Compat@?$_Vector_const_iterator@V?$_Vector_val@U?$_Simple_types@PAVFuzzyTerm@@@std@@@std@@@std@@QBEXABV12@@Z ; std::_Vector_const_iterator<std::_Vector_val<std::_Simple_types<FuzzyTerm *> > >::_Compat
PUBLIC	??1?$_Vector_const_iterator@V?$_Vector_val@U?$_Simple_types@PAVFuzzyTerm@@@std@@@std@@@std@@QAE@XZ ; std::_Vector_const_iterator<std::_Vector_val<std::_Simple_types<FuzzyTerm *> > >::~_Vector_const_iterator<std::_Vector_val<std::_Simple_types<FuzzyTerm *> > >
PUBLIC	??4?$_Vector_const_iterator@V?$_Vector_val@U?$_Simple_types@PAVFuzzyTerm@@@std@@@std@@@std@@QAEAAV01@$$QAV01@@Z ; std::_Vector_const_iterator<std::_Vector_val<std::_Simple_types<FuzzyTerm *> > >::operator=
PUBLIC	??D?$_Vector_iterator@V?$_Vector_val@U?$_Simple_types@PAVFuzzyTerm@@@std@@@std@@@std@@QBEAAPAVFuzzyTerm@@XZ ; std::_Vector_iterator<std::_Vector_val<std::_Simple_types<FuzzyTerm *> > >::operator*
PUBLIC	??E?$_Vector_iterator@V?$_Vector_val@U?$_Simple_types@PAVFuzzyTerm@@@std@@@std@@@std@@QAEAAV01@XZ ; std::_Vector_iterator<std::_Vector_val<std::_Simple_types<FuzzyTerm *> > >::operator++
PUBLIC	??0?$_Vector_iterator@V?$_Vector_val@U?$_Simple_types@PAVFuzzyTerm@@@std@@@std@@@std@@QAE@XZ ; std::_Vector_iterator<std::_Vector_val<std::_Simple_types<FuzzyTerm *> > >::_Vector_iterator<std::_Vector_val<std::_Simple_types<FuzzyTerm *> > >
PUBLIC	??1?$_Vector_iterator@V?$_Vector_val@U?$_Simple_types@PAVFuzzyTerm@@@std@@@std@@@std@@QAE@XZ ; std::_Vector_iterator<std::_Vector_val<std::_Simple_types<FuzzyTerm *> > >::~_Vector_iterator<std::_Vector_val<std::_Simple_types<FuzzyTerm *> > >
PUBLIC	??4?$_Vector_iterator@V?$_Vector_val@U?$_Simple_types@PAVFuzzyTerm@@@std@@@std@@@std@@QAEAAV01@$$QAV01@@Z ; std::_Vector_iterator<std::_Vector_val<std::_Simple_types<FuzzyTerm *> > >::operator=
PUBLIC	??0?$_Vector_iterator@V?$_Vector_val@U?$_Simple_types@PAVFuzzyTerm@@@std@@@std@@@std@@QAE@PAPAVFuzzyTerm@@PBU_Container_base12@1@@Z ; std::_Vector_iterator<std::_Vector_val<std::_Simple_types<FuzzyTerm *> > >::_Vector_iterator<std::_Vector_val<std::_Simple_types<FuzzyTerm *> > >
PUBLIC	??$addressof@$$CBV?$_Vector_val@U?$_Simple_types@PAVFuzzyTerm@@@std@@@std@@@std@@YAPBV?$_Vector_val@U?$_Simple_types@PAVFuzzyTerm@@@std@@@0@ABV10@@Z ; std::addressof<std::_Vector_val<std::_Simple_types<FuzzyTerm *> > const >
PUBLIC	??$addressof@V?$_Vector_val@U?$_Simple_types@PAVFuzzyTerm@@@std@@@std@@@std@@YAPAV?$_Vector_val@U?$_Simple_types@PAVFuzzyTerm@@@std@@@0@AAV10@@Z ; std::addressof<std::_Vector_val<std::_Simple_types<FuzzyTerm *> > >
PUBLIC	??$move@AAPAVFuzzyTerm@@@std@@YA$$QAPAVFuzzyTerm@@AAPAV1@@Z ; std::move<FuzzyTerm * &>
PUBLIC	??$emplace_back@PAVFuzzyTerm@@@?$vector@PAVFuzzyTerm@@V?$allocator@PAVFuzzyTerm@@@std@@@std@@QAE@$$QAPAVFuzzyTerm@@@Z ; std::vector<FuzzyTerm *,std::allocator<FuzzyTerm *> >::emplace_back<FuzzyTerm *>
PUBLIC	??$forward@PAVFuzzyTerm@@@std@@YA$$QAPAVFuzzyTerm@@AAPAV1@@Z ; std::forward<FuzzyTerm *>
PUBLIC	??$_Emplace_back_with_unused_capacity@PAVFuzzyTerm@@@?$vector@PAVFuzzyTerm@@V?$allocator@PAVFuzzyTerm@@@std@@@std@@AAE@$$QAPAVFuzzyTerm@@@Z ; std::vector<FuzzyTerm *,std::allocator<FuzzyTerm *> >::_Emplace_back_with_unused_capacity<FuzzyTerm *>
PUBLIC	??$_Unfancy@PAVFuzzyTerm@@@std@@YAPAPAVFuzzyTerm@@PAPAV1@@Z ; std::_Unfancy<FuzzyTerm *>
PUBLIC	??$construct@PAVFuzzyTerm@@PAV1@@?$_Default_allocator_traits@V?$allocator@PAVFuzzyTerm@@@std@@@std@@SAXAAV?$allocator@PAVFuzzyTerm@@@1@QAPAVFuzzyTerm@@$$QAPAV3@@Z ; std::_Default_allocator_traits<std::allocator<FuzzyTerm *> >::construct<FuzzyTerm *,FuzzyTerm *>
PUBLIC	??$_Emplace_reallocate@PAVFuzzyTerm@@@?$vector@PAVFuzzyTerm@@V?$allocator@PAVFuzzyTerm@@@std@@@std@@QAEPAPAVFuzzyTerm@@QAPAV2@$$QAPAV2@@Z ; std::vector<FuzzyTerm *,std::allocator<FuzzyTerm *> >::_Emplace_reallocate<FuzzyTerm *>
PUBLIC	?allocate@?$allocator@U_Container_proxy@std@@@std@@QAEPAU_Container_proxy@2@I@Z ; std::allocator<std::_Container_proxy>::allocate
PUBLIC	??$?0PAVFuzzyTerm@@@?$allocator@U_Container_proxy@std@@@std@@QAE@ABV?$allocator@PAVFuzzyTerm@@@1@@Z ; std::allocator<std::_Container_proxy>::allocator<std::_Container_proxy><FuzzyTerm *>
PUBLIC	??$exchange@PAU_Container_proxy@std@@$$T@std@@YAPAU_Container_proxy@0@AAPAU10@$$QA$$T@Z ; std::exchange<std::_Container_proxy *,std::nullptr_t>
PUBLIC	??$_Delete_plain_internal@V?$allocator@U_Container_proxy@std@@@std@@@std@@YAXAAV?$allocator@U_Container_proxy@std@@@0@QAU_Container_proxy@0@@Z ; std::_Delete_plain_internal<std::allocator<std::_Container_proxy> >
PUBLIC	??$?0$$V@?$_Compressed_pair@V?$allocator@PAVFuzzyTerm@@@std@@V?$_Vector_val@U?$_Simple_types@PAVFuzzyTerm@@@std@@@2@$00@std@@QAE@U_Zero_then_variadic_args_t@1@@Z ; std::_Compressed_pair<std::allocator<FuzzyTerm *>,std::_Vector_val<std::_Simple_types<FuzzyTerm *> >,1>::_Compressed_pair<std::allocator<FuzzyTerm *>,std::_Vector_val<std::_Simple_types<FuzzyTerm *> >,1><>
PUBLIC	??$_Alloc_proxy@V?$allocator@U_Container_proxy@std@@@std@@@_Container_base12@std@@QAEX$$QAV?$allocator@U_Container_proxy@std@@@1@@Z ; std::_Container_base12::_Alloc_proxy<std::allocator<std::_Container_proxy> >
PUBLIC	??$_Unfancy@U_Container_proxy@std@@@std@@YAPAU_Container_proxy@0@PAU10@@Z ; std::_Unfancy<std::_Container_proxy>
PUBLIC	??$_Construct_in_place@U_Container_proxy@std@@PAU_Container_base12@2@@std@@YAXAAU_Container_proxy@0@$$QAPAU_Container_base12@0@@Z ; std::_Construct_in_place<std::_Container_proxy,std::_Container_base12 *>
PUBLIC	??$min@I@std@@YAABIABI0@Z			; std::min<unsigned int>
PUBLIC	??$_Get_size_of_n@$07@std@@YAII@Z		; std::_Get_size_of_n<8>
PUBLIC	??$_Allocate@$07U_Default_allocate_traits@std@@$0A@@std@@YAPAXI@Z ; std::_Allocate<8,std::_Default_allocate_traits,0>
PUBLIC	??$_Destroy_range@V?$allocator@PAVFuzzyTerm@@@std@@@std@@YAXPAPAVFuzzyTerm@@QAPAV1@AAV?$allocator@PAVFuzzyTerm@@@0@@Z ; std::_Destroy_range<std::allocator<FuzzyTerm *> >
PUBLIC	??$_Deallocate@$07$0A@@std@@YAXPAXI@Z		; std::_Deallocate<8,0>
PUBLIC	??$_Deallocate_plain@V?$allocator@U_Container_proxy@std@@@std@@@std@@YAXAAV?$allocator@U_Container_proxy@std@@@0@QAU_Container_proxy@0@@Z ; std::_Deallocate_plain<std::allocator<std::_Container_proxy> >
PUBLIC	??$addressof@U_Container_proxy@std@@@std@@YAPAU_Container_proxy@0@AAU10@@Z ; std::addressof<std::_Container_proxy>
PUBLIC	??$forward@PAU_Container_base12@std@@@std@@YA$$QAPAU_Container_base12@0@AAPAU10@@Z ; std::forward<std::_Container_base12 *>
PUBLIC	??$_Allocate_manually_vector_aligned@U_Default_allocate_traits@std@@@std@@YAPAXI@Z ; std::_Allocate_manually_vector_aligned<std::_Default_allocate_traits>
PUBLIC	??$_Uninitialized_move@PAPAVFuzzyTerm@@V?$allocator@PAVFuzzyTerm@@@std@@@std@@YAPAPAVFuzzyTerm@@QAPAV1@0PAPAV1@AAV?$allocator@PAVFuzzyTerm@@@0@@Z ; std::_Uninitialized_move<FuzzyTerm * *,std::allocator<FuzzyTerm *> >
PUBLIC	??$_Get_size_of_n@$03@std@@YAII@Z		; std::_Get_size_of_n<4>
PUBLIC	?deallocate@?$_Default_allocator_traits@V?$allocator@U_Container_proxy@std@@@std@@@std@@SAXAAV?$allocator@U_Container_proxy@std@@@2@QAU_Container_proxy@2@I@Z ; std::_Default_allocator_traits<std::allocator<std::_Container_proxy> >::deallocate
PUBLIC	??$_Get_unwrapped@ABQAPAVFuzzyTerm@@@std@@YA@ABQAPAVFuzzyTerm@@@Z ; std::_Get_unwrapped<FuzzyTerm * * const &>
PUBLIC	??$_Copy_memmove@PAPAVFuzzyTerm@@PAPAV1@@std@@YAPAPAVFuzzyTerm@@PAPAV1@00@Z ; std::_Copy_memmove<FuzzyTerm * *,FuzzyTerm * *>
PUBLIC	??_7exception@std@@6B@				; std::exception::`vftable'
PUBLIC	??_C@_0BC@EOODALEL@Unknown?5exception@		; `string'
PUBLIC	??_7bad_alloc@std@@6B@				; std::bad_alloc::`vftable'
PUBLIC	??_7bad_array_new_length@std@@6B@		; std::bad_array_new_length::`vftable'
PUBLIC	??_C@_0BF@KINCDENJ@bad?5array?5new?5length@	; `string'
PUBLIC	__TI3?AVbad_array_new_length@std@@
PUBLIC	__CTA3?AVbad_array_new_length@std@@
PUBLIC	??_R0?AVbad_array_new_length@std@@@8		; std::bad_array_new_length `RTTI Type Descriptor'
PUBLIC	__CT??_R0?AVbad_array_new_length@std@@@8??0bad_array_new_length@std@@QAE@ABV01@@Z12
PUBLIC	??_R0?AVbad_alloc@std@@@8			; std::bad_alloc `RTTI Type Descriptor'
PUBLIC	__CT??_R0?AVbad_alloc@std@@@8??0bad_alloc@std@@QAE@ABV01@@Z12
PUBLIC	??_R0?AVexception@std@@@8			; std::exception `RTTI Type Descriptor'
PUBLIC	__CT??_R0?AVexception@std@@@8??0exception@std@@QAE@ABV01@@Z12
PUBLIC	??_C@_0BB@FCMFBGOM@invalid?5argument@		; `string'
PUBLIC	??_C@_02DKCKIIND@?$CFs@				; `string'
PUBLIC	??_C@_0GI@JMEOMKJO@C?3?2Program?5Files?5?$CIx86?$CJ?2Microsof@ ; `string'
PUBLIC	??_C@_1NA@FEEOBALC@?$AAC?$AA?3?$AA?2?$AAP?$AAr?$AAo?$AAg?$AAr?$AAa?$AAm?$AA?5?$AAF?$AAi?$AAl?$AAe@ ; `string'
PUBLIC	??_C@_1EK@NIFDJFDG@?$AAs?$AAt?$AAd?$AA?3?$AA?3?$AA_?$AAA?$AAd?$AAj?$AAu?$AAs?$AAt?$AA_?$AAm?$AAa@ ; `string'
PUBLIC	??_C@_1CG@JNLFBNGN@?$AA?$CC?$AAi?$AAn?$AAv?$AAa?$AAl?$AAi?$AAd?$AA?5?$AAa?$AAr?$AAg?$AAu?$AAm?$AAe@ ; `string'
PUBLIC	??_C@_0BJ@LFDBABJJ@ITERATOR?5LIST?5CORRUPTED?$CB@ ; `string'
PUBLIC	??_C@_1EE@KLDMFDFL@?$AAs?$AAt?$AAd?$AA?3?$AA?3?$AA_?$AAI?$AAt?$AAe?$AAr?$AAa?$AAt?$AAo?$AAr?$AA_@ ; `string'
PUBLIC	??_C@_1DG@PLBPCAEM@?$AA?$CC?$AAI?$AAT?$AAE?$AAR?$AAA?$AAT?$AAO?$AAR?$AA?5?$AAL?$AAI?$AAS?$AAT?$AA?5@ ; `string'
PUBLIC	??_7FuzzyTerm@@6B@				; FuzzyTerm::`vftable'
PUBLIC	??_7FzAND@@6B@					; FzAND::`vftable'
PUBLIC	??_7FzOR@@6B@					; FzOR::`vftable'
PUBLIC	??_C@_1KI@BFAJCJNO@?$AAF?$AA?3?$AA?2?$AAT?$PP?i?$AAl?$PP?i?$AAc?$AAh?$AAa?$AAr?$AAg?$AAe?$AAm?$AAe@ ; `string'
PUBLIC	??_C@_1FC@EJGEACIH@?$AA0?$AA?5?$AA?$CG?$AA?$CG?$AA?5?$AA?$CC?$AA?$DM?$AAF?$AAz?$AAO?$AAR?$AA?3?$AA?3?$AAC?$AAl@ ; `string'
PUBLIC	??_C@_1FE@EKNHDPMB@?$AA0?$AA?5?$AA?$CG?$AA?$CG?$AA?5?$AA?$CC?$AA?$DM?$AAF?$AAz?$AAO?$AAR?$AA?3?$AA?3?$AAO?$AAR@ ; `string'
PUBLIC	??_C@_0DC@KEKNBAEB@can?8t?5increment?5value?9initializ@ ; `string'
PUBLIC	??_C@_0GH@HACIOKNJ@C?3?2Program?5Files?5?$CIx86?$CJ?2Microsof@ ; `string'
PUBLIC	??_C@_1MO@KFAGNMIJ@?$AAC?$AA?3?$AA?2?$AAP?$AAr?$AAo?$AAg?$AAr?$AAa?$AAm?$AA?5?$AAF?$AAi?$AAl?$AAe@ ; `string'
PUBLIC	??_C@_1OC@CGPGIJAB@?$AAs?$AAt?$AAd?$AA?3?$AA?3?$AA_?$AAV?$AAe?$AAc?$AAt?$AAo?$AAr?$AA_?$AAc?$AAo@ ; `string'
PUBLIC	??_C@_1GI@EDCILPL@?$AA?$CC?$AAc?$AAa?$AAn?$AA?8?$AAt?$AA?5?$AAi?$AAn?$AAc?$AAr?$AAe?$AAm?$AAe?$AAn@ ; `string'
PUBLIC	??_C@_0CJ@OAAAAGPM@can?8t?5increment?5vector?5iterator@ ; `string'
PUBLIC	??_C@_1FG@LDPPKMGP@?$AA?$CC?$AAc?$AAa?$AAn?$AA?8?$AAt?$AA?5?$AAi?$AAn?$AAc?$AAr?$AAe?$AAm?$AAe?$AAn@ ; `string'
PUBLIC	??_C@_0DE@CHADHGFF@can?8t?5dereference?5value?9initial@ ; `string'
PUBLIC	??_C@_1OA@BIBNCNDA@?$AAs?$AAt?$AAd?$AA?3?$AA?3?$AA_?$AAV?$AAe?$AAc?$AAt?$AAo?$AAr?$AA_?$AAc?$AAo@ ; `string'
PUBLIC	??_C@_1GM@FNBFNBEL@?$AA?$CC?$AAc?$AAa?$AAn?$AA?8?$AAt?$AA?5?$AAd?$AAe?$AAr?$AAe?$AAf?$AAe?$AAr?$AAe@ ; `string'
PUBLIC	??_C@_0CP@MDHADBHN@can?8t?5dereference?5out?5of?5range?5@ ; `string'
PUBLIC	??_C@_1GC@JDCKOLAC@?$AA?$CC?$AAc?$AAa?$AAn?$AA?8?$AAt?$AA?5?$AAd?$AAe?$AAr?$AAe?$AAf?$AAe?$AAr?$AAe@ ; `string'
PUBLIC	??_C@_0BO@CAOBBIOC@vector?5iterators?5incompatible@ ; `string'
PUBLIC	??_C@_1NK@PBOLGCJB@?$AAs?$AAt?$AAd?$AA?3?$AA?3?$AA_?$AAV?$AAe?$AAc?$AAt?$AAo?$AAr?$AA_?$AAc?$AAo@ ; `string'
PUBLIC	??_C@_1EA@DJDGNIII@?$AA?$CC?$AAv?$AAe?$AAc?$AAt?$AAo?$AAr?$AA?5?$AAi?$AAt?$AAe?$AAr?$AAa?$AAt?$AAo@ ; `string'
PUBLIC	??_C@_0BA@FOIKENOD@vector?5too?5long@		; `string'
PUBLIC	??_R4exception@std@@6B@				; std::exception::`RTTI Complete Object Locator'
PUBLIC	??_R3exception@std@@8				; std::exception::`RTTI Class Hierarchy Descriptor'
PUBLIC	??_R2exception@std@@8				; std::exception::`RTTI Base Class Array'
PUBLIC	??_R1A@?0A@EA@exception@std@@8			; std::exception::`RTTI Base Class Descriptor at (0,-1,0,64)'
PUBLIC	??_R4bad_alloc@std@@6B@				; std::bad_alloc::`RTTI Complete Object Locator'
PUBLIC	??_R3bad_alloc@std@@8				; std::bad_alloc::`RTTI Class Hierarchy Descriptor'
PUBLIC	??_R2bad_alloc@std@@8				; std::bad_alloc::`RTTI Base Class Array'
PUBLIC	??_R1A@?0A@EA@bad_alloc@std@@8			; std::bad_alloc::`RTTI Base Class Descriptor at (0,-1,0,64)'
PUBLIC	??_R4bad_array_new_length@std@@6B@		; std::bad_array_new_length::`RTTI Complete Object Locator'
PUBLIC	??_R3bad_array_new_length@std@@8		; std::bad_array_new_length::`RTTI Class Hierarchy Descriptor'
PUBLIC	??_R2bad_array_new_length@std@@8		; std::bad_array_new_length::`RTTI Base Class Array'
PUBLIC	??_R1A@?0A@EA@bad_array_new_length@std@@8	; std::bad_array_new_length::`RTTI Base Class Descriptor at (0,-1,0,64)'
PUBLIC	??_R4FuzzyTerm@@6B@				; FuzzyTerm::`RTTI Complete Object Locator'
PUBLIC	??_R0?AVFuzzyTerm@@@8				; FuzzyTerm `RTTI Type Descriptor'
PUBLIC	??_R3FuzzyTerm@@8				; FuzzyTerm::`RTTI Class Hierarchy Descriptor'
PUBLIC	??_R2FuzzyTerm@@8				; FuzzyTerm::`RTTI Base Class Array'
PUBLIC	??_R1A@?0A@EA@FuzzyTerm@@8			; FuzzyTerm::`RTTI Base Class Descriptor at (0,-1,0,64)'
PUBLIC	??_R4FzAND@@6B@					; FzAND::`RTTI Complete Object Locator'
PUBLIC	??_R0?AVFzAND@@@8				; FzAND `RTTI Type Descriptor'
PUBLIC	??_R3FzAND@@8					; FzAND::`RTTI Class Hierarchy Descriptor'
PUBLIC	??_R2FzAND@@8					; FzAND::`RTTI Base Class Array'
PUBLIC	??_R1A@?0A@EA@FzAND@@8				; FzAND::`RTTI Base Class Descriptor at (0,-1,0,64)'
PUBLIC	??_R4FzOR@@6B@					; FzOR::`RTTI Complete Object Locator'
PUBLIC	??_R0?AVFzOR@@@8				; FzOR `RTTI Type Descriptor'
PUBLIC	??_R3FzOR@@8					; FzOR::`RTTI Class Hierarchy Descriptor'
PUBLIC	??_R2FzOR@@8					; FzOR::`RTTI Base Class Array'
PUBLIC	??_R1A@?0A@EA@FzOR@@8				; FzOR::`RTTI Base Class Descriptor at (0,-1,0,64)'
PUBLIC	__real@3810000000000000
PUBLIC	__real@7fefffffffffffff
EXTRN	__purecall:PROC
EXTRN	??2@YAPAXI@Z:PROC				; operator new
EXTRN	??3@YAXPAXI@Z:PROC				; operator delete
EXTRN	__invalid_parameter:PROC
EXTRN	__CrtDbgReport:PROC
EXTRN	??0_Lockit@std@@QAE@H@Z:PROC			; std::_Lockit::_Lockit
EXTRN	??1_Lockit@std@@QAE@XZ:PROC			; std::_Lockit::~_Lockit
EXTRN	_memmove:PROC
EXTRN	___std_exception_copy:PROC
EXTRN	___std_exception_destroy:PROC
EXTRN	??_Eexception@std@@UAEPAXI@Z:PROC		; std::exception::`vector deleting destructor'
EXTRN	??_Ebad_alloc@std@@UAEPAXI@Z:PROC		; std::bad_alloc::`vector deleting destructor'
EXTRN	??_Ebad_array_new_length@std@@UAEPAXI@Z:PROC	; std::bad_array_new_length::`vector deleting destructor'
EXTRN	?_Xlength_error@std@@YAXPBD@Z:PROC		; std::_Xlength_error
EXTRN	__wassert:PROC
EXTRN	??_EFuzzyTerm@@UAEPAXI@Z:PROC			; FuzzyTerm::`vector deleting destructor'
EXTRN	??_EFzAND@@UAEPAXI@Z:PROC			; FzAND::`vector deleting destructor'
EXTRN	??_EFzOR@@UAEPAXI@Z:PROC			; FzOR::`vector deleting destructor'
EXTRN	@_RTC_CheckStackVars@8:PROC
EXTRN	@__security_check_cookie@4:PROC
EXTRN	__CxxThrowException@8:PROC
EXTRN	__RTC_CheckEsp:PROC
EXTRN	__RTC_InitBase:PROC
EXTRN	__RTC_Shutdown:PROC
EXTRN	___CxxFrameHandler3:PROC
EXTRN	??_7type_info@@6B@:QWORD			; type_info::`vftable'
EXTRN	___security_cookie:DWORD
EXTRN	__fltused:DWORD
;	COMDAT __real@7fefffffffffffff
CONST	SEGMENT
__real@7fefffffffffffff DQ 07fefffffffffffffr	; 1.79769e+308
CONST	ENDS
;	COMDAT __real@3810000000000000
CONST	SEGMENT
__real@3810000000000000 DQ 03810000000000000r	; 1.17549e-38
CONST	ENDS
;	COMDAT rtc$TMZ
rtc$TMZ	SEGMENT
__RTC_Shutdown.rtc$TMZ DD FLAT:__RTC_Shutdown
rtc$TMZ	ENDS
;	COMDAT rtc$IMZ
rtc$IMZ	SEGMENT
__RTC_InitBase.rtc$IMZ DD FLAT:__RTC_InitBase
rtc$IMZ	ENDS
;	COMDAT ??_R1A@?0A@EA@FzOR@@8
rdata$r	SEGMENT
??_R1A@?0A@EA@FzOR@@8 DD FLAT:??_R0?AVFzOR@@@8		; FzOR::`RTTI Base Class Descriptor at (0,-1,0,64)'
	DD	01H
	DD	00H
	DD	0ffffffffH
	DD	00H
	DD	040H
	DD	FLAT:??_R3FzOR@@8
rdata$r	ENDS
;	COMDAT ??_R2FzOR@@8
rdata$r	SEGMENT
??_R2FzOR@@8 DD	FLAT:??_R1A@?0A@EA@FzOR@@8		; FzOR::`RTTI Base Class Array'
	DD	FLAT:??_R1A@?0A@EA@FuzzyTerm@@8
rdata$r	ENDS
;	COMDAT ??_R3FzOR@@8
rdata$r	SEGMENT
??_R3FzOR@@8 DD	00H					; FzOR::`RTTI Class Hierarchy Descriptor'
	DD	00H
	DD	02H
	DD	FLAT:??_R2FzOR@@8
rdata$r	ENDS
;	COMDAT ??_R0?AVFzOR@@@8
data$r	SEGMENT
??_R0?AVFzOR@@@8 DD FLAT:??_7type_info@@6B@		; FzOR `RTTI Type Descriptor'
	DD	00H
	DB	'.?AVFzOR@@', 00H
data$r	ENDS
;	COMDAT ??_R4FzOR@@6B@
rdata$r	SEGMENT
??_R4FzOR@@6B@ DD 00H					; FzOR::`RTTI Complete Object Locator'
	DD	00H
	DD	00H
	DD	FLAT:??_R0?AVFzOR@@@8
	DD	FLAT:??_R3FzOR@@8
rdata$r	ENDS
;	COMDAT ??_R1A@?0A@EA@FzAND@@8
rdata$r	SEGMENT
??_R1A@?0A@EA@FzAND@@8 DD FLAT:??_R0?AVFzAND@@@8	; FzAND::`RTTI Base Class Descriptor at (0,-1,0,64)'
	DD	01H
	DD	00H
	DD	0ffffffffH
	DD	00H
	DD	040H
	DD	FLAT:??_R3FzAND@@8
rdata$r	ENDS
;	COMDAT ??_R2FzAND@@8
rdata$r	SEGMENT
??_R2FzAND@@8 DD FLAT:??_R1A@?0A@EA@FzAND@@8		; FzAND::`RTTI Base Class Array'
	DD	FLAT:??_R1A@?0A@EA@FuzzyTerm@@8
rdata$r	ENDS
;	COMDAT ??_R3FzAND@@8
rdata$r	SEGMENT
??_R3FzAND@@8 DD 00H					; FzAND::`RTTI Class Hierarchy Descriptor'
	DD	00H
	DD	02H
	DD	FLAT:??_R2FzAND@@8
rdata$r	ENDS
;	COMDAT ??_R0?AVFzAND@@@8
data$r	SEGMENT
??_R0?AVFzAND@@@8 DD FLAT:??_7type_info@@6B@		; FzAND `RTTI Type Descriptor'
	DD	00H
	DB	'.?AVFzAND@@', 00H
data$r	ENDS
;	COMDAT ??_R4FzAND@@6B@
rdata$r	SEGMENT
??_R4FzAND@@6B@ DD 00H					; FzAND::`RTTI Complete Object Locator'
	DD	00H
	DD	00H
	DD	FLAT:??_R0?AVFzAND@@@8
	DD	FLAT:??_R3FzAND@@8
rdata$r	ENDS
;	COMDAT ??_R1A@?0A@EA@FuzzyTerm@@8
rdata$r	SEGMENT
??_R1A@?0A@EA@FuzzyTerm@@8 DD FLAT:??_R0?AVFuzzyTerm@@@8 ; FuzzyTerm::`RTTI Base Class Descriptor at (0,-1,0,64)'
	DD	00H
	DD	00H
	DD	0ffffffffH
	DD	00H
	DD	040H
	DD	FLAT:??_R3FuzzyTerm@@8
rdata$r	ENDS
;	COMDAT ??_R2FuzzyTerm@@8
rdata$r	SEGMENT
??_R2FuzzyTerm@@8 DD FLAT:??_R1A@?0A@EA@FuzzyTerm@@8	; FuzzyTerm::`RTTI Base Class Array'
rdata$r	ENDS
;	COMDAT ??_R3FuzzyTerm@@8
rdata$r	SEGMENT
??_R3FuzzyTerm@@8 DD 00H				; FuzzyTerm::`RTTI Class Hierarchy Descriptor'
	DD	00H
	DD	01H
	DD	FLAT:??_R2FuzzyTerm@@8
rdata$r	ENDS
;	COMDAT ??_R0?AVFuzzyTerm@@@8
data$r	SEGMENT
??_R0?AVFuzzyTerm@@@8 DD FLAT:??_7type_info@@6B@	; FuzzyTerm `RTTI Type Descriptor'
	DD	00H
	DB	'.?AVFuzzyTerm@@', 00H
data$r	ENDS
;	COMDAT ??_R4FuzzyTerm@@6B@
rdata$r	SEGMENT
??_R4FuzzyTerm@@6B@ DD 00H				; FuzzyTerm::`RTTI Complete Object Locator'
	DD	00H
	DD	00H
	DD	FLAT:??_R0?AVFuzzyTerm@@@8
	DD	FLAT:??_R3FuzzyTerm@@8
rdata$r	ENDS
;	COMDAT ??_R1A@?0A@EA@bad_array_new_length@std@@8
rdata$r	SEGMENT
??_R1A@?0A@EA@bad_array_new_length@std@@8 DD FLAT:??_R0?AVbad_array_new_length@std@@@8 ; std::bad_array_new_length::`RTTI Base Class Descriptor at (0,-1,0,64)'
	DD	02H
	DD	00H
	DD	0ffffffffH
	DD	00H
	DD	040H
	DD	FLAT:??_R3bad_array_new_length@std@@8
rdata$r	ENDS
;	COMDAT ??_R2bad_array_new_length@std@@8
rdata$r	SEGMENT
??_R2bad_array_new_length@std@@8 DD FLAT:??_R1A@?0A@EA@bad_array_new_length@std@@8 ; std::bad_array_new_length::`RTTI Base Class Array'
	DD	FLAT:??_R1A@?0A@EA@bad_alloc@std@@8
	DD	FLAT:??_R1A@?0A@EA@exception@std@@8
rdata$r	ENDS
;	COMDAT ??_R3bad_array_new_length@std@@8
rdata$r	SEGMENT
??_R3bad_array_new_length@std@@8 DD 00H			; std::bad_array_new_length::`RTTI Class Hierarchy Descriptor'
	DD	00H
	DD	03H
	DD	FLAT:??_R2bad_array_new_length@std@@8
rdata$r	ENDS
;	COMDAT ??_R4bad_array_new_length@std@@6B@
rdata$r	SEGMENT
??_R4bad_array_new_length@std@@6B@ DD 00H		; std::bad_array_new_length::`RTTI Complete Object Locator'
	DD	00H
	DD	00H
	DD	FLAT:??_R0?AVbad_array_new_length@std@@@8
	DD	FLAT:??_R3bad_array_new_length@std@@8
rdata$r	ENDS
;	COMDAT ??_R1A@?0A@EA@bad_alloc@std@@8
rdata$r	SEGMENT
??_R1A@?0A@EA@bad_alloc@std@@8 DD FLAT:??_R0?AVbad_alloc@std@@@8 ; std::bad_alloc::`RTTI Base Class Descriptor at (0,-1,0,64)'
	DD	01H
	DD	00H
	DD	0ffffffffH
	DD	00H
	DD	040H
	DD	FLAT:??_R3bad_alloc@std@@8
rdata$r	ENDS
;	COMDAT ??_R2bad_alloc@std@@8
rdata$r	SEGMENT
??_R2bad_alloc@std@@8 DD FLAT:??_R1A@?0A@EA@bad_alloc@std@@8 ; std::bad_alloc::`RTTI Base Class Array'
	DD	FLAT:??_R1A@?0A@EA@exception@std@@8
rdata$r	ENDS
;	COMDAT ??_R3bad_alloc@std@@8
rdata$r	SEGMENT
??_R3bad_alloc@std@@8 DD 00H				; std::bad_alloc::`RTTI Class Hierarchy Descriptor'
	DD	00H
	DD	02H
	DD	FLAT:??_R2bad_alloc@std@@8
rdata$r	ENDS
;	COMDAT ??_R4bad_alloc@std@@6B@
rdata$r	SEGMENT
??_R4bad_alloc@std@@6B@ DD 00H				; std::bad_alloc::`RTTI Complete Object Locator'
	DD	00H
	DD	00H
	DD	FLAT:??_R0?AVbad_alloc@std@@@8
	DD	FLAT:??_R3bad_alloc@std@@8
rdata$r	ENDS
;	COMDAT ??_R1A@?0A@EA@exception@std@@8
rdata$r	SEGMENT
??_R1A@?0A@EA@exception@std@@8 DD FLAT:??_R0?AVexception@std@@@8 ; std::exception::`RTTI Base Class Descriptor at (0,-1,0,64)'
	DD	00H
	DD	00H
	DD	0ffffffffH
	DD	00H
	DD	040H
	DD	FLAT:??_R3exception@std@@8
rdata$r	ENDS
;	COMDAT ??_R2exception@std@@8
rdata$r	SEGMENT
??_R2exception@std@@8 DD FLAT:??_R1A@?0A@EA@exception@std@@8 ; std::exception::`RTTI Base Class Array'
rdata$r	ENDS
;	COMDAT ??_R3exception@std@@8
rdata$r	SEGMENT
??_R3exception@std@@8 DD 00H				; std::exception::`RTTI Class Hierarchy Descriptor'
	DD	00H
	DD	01H
	DD	FLAT:??_R2exception@std@@8
rdata$r	ENDS
;	COMDAT ??_R4exception@std@@6B@
rdata$r	SEGMENT
??_R4exception@std@@6B@ DD 00H				; std::exception::`RTTI Complete Object Locator'
	DD	00H
	DD	00H
	DD	FLAT:??_R0?AVexception@std@@@8
	DD	FLAT:??_R3exception@std@@8
rdata$r	ENDS
;	COMDAT ??_C@_0BA@FOIKENOD@vector?5too?5long@
CONST	SEGMENT
??_C@_0BA@FOIKENOD@vector?5too?5long@ DB 'vector too long', 00H ; `string'
CONST	ENDS
;	COMDAT ??_C@_1EA@DJDGNIII@?$AA?$CC?$AAv?$AAe?$AAc?$AAt?$AAo?$AAr?$AA?5?$AAi?$AAt?$AAe?$AAr?$AAa?$AAt?$AAo@
CONST	SEGMENT
??_C@_1EA@DJDGNIII@?$AA?$CC?$AAv?$AAe?$AAc?$AAt?$AAo?$AAr?$AA?5?$AAi?$AAt?$AAe?$AAr?$AAa?$AAt?$AAo@ DB '"'
	DB	00H, 'v', 00H, 'e', 00H, 'c', 00H, 't', 00H, 'o', 00H, 'r', 00H
	DB	' ', 00H, 'i', 00H, 't', 00H, 'e', 00H, 'r', 00H, 'a', 00H, 't'
	DB	00H, 'o', 00H, 'r', 00H, 's', 00H, ' ', 00H, 'i', 00H, 'n', 00H
	DB	'c', 00H, 'o', 00H, 'm', 00H, 'p', 00H, 'a', 00H, 't', 00H, 'i'
	DB	00H, 'b', 00H, 'l', 00H, 'e', 00H, '"', 00H, 00H, 00H ; `string'
CONST	ENDS
;	COMDAT ??_C@_1NK@PBOLGCJB@?$AAs?$AAt?$AAd?$AA?3?$AA?3?$AA_?$AAV?$AAe?$AAc?$AAt?$AAo?$AAr?$AA_?$AAc?$AAo@
CONST	SEGMENT
??_C@_1NK@PBOLGCJB@?$AAs?$AAt?$AAd?$AA?3?$AA?3?$AA_?$AAV?$AAe?$AAc?$AAt?$AAo?$AAr?$AA_?$AAc?$AAo@ DB 's'
	DB	00H, 't', 00H, 'd', 00H, ':', 00H, ':', 00H, '_', 00H, 'V', 00H
	DB	'e', 00H, 'c', 00H, 't', 00H, 'o', 00H, 'r', 00H, '_', 00H, 'c'
	DB	00H, 'o', 00H, 'n', 00H, 's', 00H, 't', 00H, '_', 00H, 'i', 00H
	DB	't', 00H, 'e', 00H, 'r', 00H, 'a', 00H, 't', 00H, 'o', 00H, 'r'
	DB	00H, '<', 00H, 'c', 00H, 'l', 00H, 'a', 00H, 's', 00H, 's', 00H
	DB	' ', 00H, 's', 00H, 't', 00H, 'd', 00H, ':', 00H, ':', 00H, '_'
	DB	00H, 'V', 00H, 'e', 00H, 'c', 00H, 't', 00H, 'o', 00H, 'r', 00H
	DB	'_', 00H, 'v', 00H, 'a', 00H, 'l', 00H, '<', 00H, 's', 00H, 't'
	DB	00H, 'r', 00H, 'u', 00H, 'c', 00H, 't', 00H, ' ', 00H, 's', 00H
	DB	't', 00H, 'd', 00H, ':', 00H, ':', 00H, '_', 00H, 'S', 00H, 'i'
	DB	00H, 'm', 00H, 'p', 00H, 'l', 00H, 'e', 00H, '_', 00H, 't', 00H
	DB	'y', 00H, 'p', 00H, 'e', 00H, 's', 00H, '<', 00H, 'c', 00H, 'l'
	DB	00H, 'a', 00H, 's', 00H, 's', 00H, ' ', 00H, 'F', 00H, 'u', 00H
	DB	'z', 00H, 'z', 00H, 'y', 00H, 'T', 00H, 'e', 00H, 'r', 00H, 'm'
	DB	00H, ' ', 00H, '*', 00H, '>', 00H, ' ', 00H, '>', 00H, ' ', 00H
	DB	'>', 00H, ':', 00H, ':', 00H, '_', 00H, 'C', 00H, 'o', 00H, 'm'
	DB	00H, 'p', 00H, 'a', 00H, 't', 00H, 00H, 00H	; `string'
CONST	ENDS
;	COMDAT ??_C@_0BO@CAOBBIOC@vector?5iterators?5incompatible@
CONST	SEGMENT
??_C@_0BO@CAOBBIOC@vector?5iterators?5incompatible@ DB 'vector iterators '
	DB	'incompatible', 00H				; `string'
CONST	ENDS
;	COMDAT ??_C@_1GC@JDCKOLAC@?$AA?$CC?$AAc?$AAa?$AAn?$AA?8?$AAt?$AA?5?$AAd?$AAe?$AAr?$AAe?$AAf?$AAe?$AAr?$AAe@
CONST	SEGMENT
??_C@_1GC@JDCKOLAC@?$AA?$CC?$AAc?$AAa?$AAn?$AA?8?$AAt?$AA?5?$AAd?$AAe?$AAr?$AAe?$AAf?$AAe?$AAr?$AAe@ DB '"'
	DB	00H, 'c', 00H, 'a', 00H, 'n', 00H, '''', 00H, 't', 00H, ' ', 00H
	DB	'd', 00H, 'e', 00H, 'r', 00H, 'e', 00H, 'f', 00H, 'e', 00H, 'r'
	DB	00H, 'e', 00H, 'n', 00H, 'c', 00H, 'e', 00H, ' ', 00H, 'o', 00H
	DB	'u', 00H, 't', 00H, ' ', 00H, 'o', 00H, 'f', 00H, ' ', 00H, 'r'
	DB	00H, 'a', 00H, 'n', 00H, 'g', 00H, 'e', 00H, ' ', 00H, 'v', 00H
	DB	'e', 00H, 'c', 00H, 't', 00H, 'o', 00H, 'r', 00H, ' ', 00H, 'i'
	DB	00H, 't', 00H, 'e', 00H, 'r', 00H, 'a', 00H, 't', 00H, 'o', 00H
	DB	'r', 00H, '"', 00H, 00H, 00H			; `string'
CONST	ENDS
;	COMDAT ??_C@_0CP@MDHADBHN@can?8t?5dereference?5out?5of?5range?5@
CONST	SEGMENT
??_C@_0CP@MDHADBHN@can?8t?5dereference?5out?5of?5range?5@ DB 'can''t dere'
	DB	'ference out of range vector iterator', 00H	; `string'
CONST	ENDS
;	COMDAT ??_C@_1GM@FNBFNBEL@?$AA?$CC?$AAc?$AAa?$AAn?$AA?8?$AAt?$AA?5?$AAd?$AAe?$AAr?$AAe?$AAf?$AAe?$AAr?$AAe@
CONST	SEGMENT
??_C@_1GM@FNBFNBEL@?$AA?$CC?$AAc?$AAa?$AAn?$AA?8?$AAt?$AA?5?$AAd?$AAe?$AAr?$AAe?$AAf?$AAe?$AAr?$AAe@ DB '"'
	DB	00H, 'c', 00H, 'a', 00H, 'n', 00H, '''', 00H, 't', 00H, ' ', 00H
	DB	'd', 00H, 'e', 00H, 'r', 00H, 'e', 00H, 'f', 00H, 'e', 00H, 'r'
	DB	00H, 'e', 00H, 'n', 00H, 'c', 00H, 'e', 00H, ' ', 00H, 'v', 00H
	DB	'a', 00H, 'l', 00H, 'u', 00H, 'e', 00H, '-', 00H, 'i', 00H, 'n'
	DB	00H, 'i', 00H, 't', 00H, 'i', 00H, 'a', 00H, 'l', 00H, 'i', 00H
	DB	'z', 00H, 'e', 00H, 'd', 00H, ' ', 00H, 'v', 00H, 'e', 00H, 'c'
	DB	00H, 't', 00H, 'o', 00H, 'r', 00H, ' ', 00H, 'i', 00H, 't', 00H
	DB	'e', 00H, 'r', 00H, 'a', 00H, 't', 00H, 'o', 00H, 'r', 00H, '"'
	DB	00H, 00H, 00H				; `string'
CONST	ENDS
;	COMDAT ??_C@_1OA@BIBNCNDA@?$AAs?$AAt?$AAd?$AA?3?$AA?3?$AA_?$AAV?$AAe?$AAc?$AAt?$AAo?$AAr?$AA_?$AAc?$AAo@
CONST	SEGMENT
??_C@_1OA@BIBNCNDA@?$AAs?$AAt?$AAd?$AA?3?$AA?3?$AA_?$AAV?$AAe?$AAc?$AAt?$AAo?$AAr?$AA_?$AAc?$AAo@ DB 's'
	DB	00H, 't', 00H, 'd', 00H, ':', 00H, ':', 00H, '_', 00H, 'V', 00H
	DB	'e', 00H, 'c', 00H, 't', 00H, 'o', 00H, 'r', 00H, '_', 00H, 'c'
	DB	00H, 'o', 00H, 'n', 00H, 's', 00H, 't', 00H, '_', 00H, 'i', 00H
	DB	't', 00H, 'e', 00H, 'r', 00H, 'a', 00H, 't', 00H, 'o', 00H, 'r'
	DB	00H, '<', 00H, 'c', 00H, 'l', 00H, 'a', 00H, 's', 00H, 's', 00H
	DB	' ', 00H, 's', 00H, 't', 00H, 'd', 00H, ':', 00H, ':', 00H, '_'
	DB	00H, 'V', 00H, 'e', 00H, 'c', 00H, 't', 00H, 'o', 00H, 'r', 00H
	DB	'_', 00H, 'v', 00H, 'a', 00H, 'l', 00H, '<', 00H, 's', 00H, 't'
	DB	00H, 'r', 00H, 'u', 00H, 'c', 00H, 't', 00H, ' ', 00H, 's', 00H
	DB	't', 00H, 'd', 00H, ':', 00H, ':', 00H, '_', 00H, 'S', 00H, 'i'
	DB	00H, 'm', 00H, 'p', 00H, 'l', 00H, 'e', 00H, '_', 00H, 't', 00H
	DB	'y', 00H, 'p', 00H, 'e', 00H, 's', 00H, '<', 00H, 'c', 00H, 'l'
	DB	00H, 'a', 00H, 's', 00H, 's', 00H, ' ', 00H, 'F', 00H, 'u', 00H
	DB	'z', 00H, 'z', 00H, 'y', 00H, 'T', 00H, 'e', 00H, 'r', 00H, 'm'
	DB	00H, ' ', 00H, '*', 00H, '>', 00H, ' ', 00H, '>', 00H, ' ', 00H
	DB	'>', 00H, ':', 00H, ':', 00H, 'o', 00H, 'p', 00H, 'e', 00H, 'r'
	DB	00H, 'a', 00H, 't', 00H, 'o', 00H, 'r', 00H, ' ', 00H, '*', 00H
	DB	00H, 00H					; `string'
CONST	ENDS
;	COMDAT ??_C@_0DE@CHADHGFF@can?8t?5dereference?5value?9initial@
CONST	SEGMENT
??_C@_0DE@CHADHGFF@can?8t?5dereference?5value?9initial@ DB 'can''t derefe'
	DB	'rence value-initialized vector iterator', 00H ; `string'
CONST	ENDS
;	COMDAT ??_C@_1FG@LDPPKMGP@?$AA?$CC?$AAc?$AAa?$AAn?$AA?8?$AAt?$AA?5?$AAi?$AAn?$AAc?$AAr?$AAe?$AAm?$AAe?$AAn@
CONST	SEGMENT
??_C@_1FG@LDPPKMGP@?$AA?$CC?$AAc?$AAa?$AAn?$AA?8?$AAt?$AA?5?$AAi?$AAn?$AAc?$AAr?$AAe?$AAm?$AAe?$AAn@ DB '"'
	DB	00H, 'c', 00H, 'a', 00H, 'n', 00H, '''', 00H, 't', 00H, ' ', 00H
	DB	'i', 00H, 'n', 00H, 'c', 00H, 'r', 00H, 'e', 00H, 'm', 00H, 'e'
	DB	00H, 'n', 00H, 't', 00H, ' ', 00H, 'v', 00H, 'e', 00H, 'c', 00H
	DB	't', 00H, 'o', 00H, 'r', 00H, ' ', 00H, 'i', 00H, 't', 00H, 'e'
	DB	00H, 'r', 00H, 'a', 00H, 't', 00H, 'o', 00H, 'r', 00H, ' ', 00H
	DB	'p', 00H, 'a', 00H, 's', 00H, 't', 00H, ' ', 00H, 'e', 00H, 'n'
	DB	00H, 'd', 00H, '"', 00H, 00H, 00H		; `string'
CONST	ENDS
;	COMDAT ??_C@_0CJ@OAAAAGPM@can?8t?5increment?5vector?5iterator@
CONST	SEGMENT
??_C@_0CJ@OAAAAGPM@can?8t?5increment?5vector?5iterator@ DB 'can''t increm'
	DB	'ent vector iterator past end', 00H		; `string'
CONST	ENDS
;	COMDAT ??_C@_1GI@EDCILPL@?$AA?$CC?$AAc?$AAa?$AAn?$AA?8?$AAt?$AA?5?$AAi?$AAn?$AAc?$AAr?$AAe?$AAm?$AAe?$AAn@
CONST	SEGMENT
??_C@_1GI@EDCILPL@?$AA?$CC?$AAc?$AAa?$AAn?$AA?8?$AAt?$AA?5?$AAi?$AAn?$AAc?$AAr?$AAe?$AAm?$AAe?$AAn@ DB '"'
	DB	00H, 'c', 00H, 'a', 00H, 'n', 00H, '''', 00H, 't', 00H, ' ', 00H
	DB	'i', 00H, 'n', 00H, 'c', 00H, 'r', 00H, 'e', 00H, 'm', 00H, 'e'
	DB	00H, 'n', 00H, 't', 00H, ' ', 00H, 'v', 00H, 'a', 00H, 'l', 00H
	DB	'u', 00H, 'e', 00H, '-', 00H, 'i', 00H, 'n', 00H, 'i', 00H, 't'
	DB	00H, 'i', 00H, 'a', 00H, 'l', 00H, 'i', 00H, 'z', 00H, 'e', 00H
	DB	'd', 00H, ' ', 00H, 'v', 00H, 'e', 00H, 'c', 00H, 't', 00H, 'o'
	DB	00H, 'r', 00H, ' ', 00H, 'i', 00H, 't', 00H, 'e', 00H, 'r', 00H
	DB	'a', 00H, 't', 00H, 'o', 00H, 'r', 00H, '"', 00H, 00H, 00H ; `string'
CONST	ENDS
;	COMDAT ??_C@_1OC@CGPGIJAB@?$AAs?$AAt?$AAd?$AA?3?$AA?3?$AA_?$AAV?$AAe?$AAc?$AAt?$AAo?$AAr?$AA_?$AAc?$AAo@
CONST	SEGMENT
??_C@_1OC@CGPGIJAB@?$AAs?$AAt?$AAd?$AA?3?$AA?3?$AA_?$AAV?$AAe?$AAc?$AAt?$AAo?$AAr?$AA_?$AAc?$AAo@ DB 's'
	DB	00H, 't', 00H, 'd', 00H, ':', 00H, ':', 00H, '_', 00H, 'V', 00H
	DB	'e', 00H, 'c', 00H, 't', 00H, 'o', 00H, 'r', 00H, '_', 00H, 'c'
	DB	00H, 'o', 00H, 'n', 00H, 's', 00H, 't', 00H, '_', 00H, 'i', 00H
	DB	't', 00H, 'e', 00H, 'r', 00H, 'a', 00H, 't', 00H, 'o', 00H, 'r'
	DB	00H, '<', 00H, 'c', 00H, 'l', 00H, 'a', 00H, 's', 00H, 's', 00H
	DB	' ', 00H, 's', 00H, 't', 00H, 'd', 00H, ':', 00H, ':', 00H, '_'
	DB	00H, 'V', 00H, 'e', 00H, 'c', 00H, 't', 00H, 'o', 00H, 'r', 00H
	DB	'_', 00H, 'v', 00H, 'a', 00H, 'l', 00H, '<', 00H, 's', 00H, 't'
	DB	00H, 'r', 00H, 'u', 00H, 'c', 00H, 't', 00H, ' ', 00H, 's', 00H
	DB	't', 00H, 'd', 00H, ':', 00H, ':', 00H, '_', 00H, 'S', 00H, 'i'
	DB	00H, 'm', 00H, 'p', 00H, 'l', 00H, 'e', 00H, '_', 00H, 't', 00H
	DB	'y', 00H, 'p', 00H, 'e', 00H, 's', 00H, '<', 00H, 'c', 00H, 'l'
	DB	00H, 'a', 00H, 's', 00H, 's', 00H, ' ', 00H, 'F', 00H, 'u', 00H
	DB	'z', 00H, 'z', 00H, 'y', 00H, 'T', 00H, 'e', 00H, 'r', 00H, 'm'
	DB	00H, ' ', 00H, '*', 00H, '>', 00H, ' ', 00H, '>', 00H, ' ', 00H
	DB	'>', 00H, ':', 00H, ':', 00H, 'o', 00H, 'p', 00H, 'e', 00H, 'r'
	DB	00H, 'a', 00H, 't', 00H, 'o', 00H, 'r', 00H, ' ', 00H, '+', 00H
	DB	'+', 00H, 00H, 00H				; `string'
CONST	ENDS
;	COMDAT ??_C@_1MO@KFAGNMIJ@?$AAC?$AA?3?$AA?2?$AAP?$AAr?$AAo?$AAg?$AAr?$AAa?$AAm?$AA?5?$AAF?$AAi?$AAl?$AAe@
CONST	SEGMENT
??_C@_1MO@KFAGNMIJ@?$AAC?$AA?3?$AA?2?$AAP?$AAr?$AAo?$AAg?$AAr?$AAa?$AAm?$AA?5?$AAF?$AAi?$AAl?$AAe@ DB 'C'
	DB	00H, ':', 00H, '\', 00H, 'P', 00H, 'r', 00H, 'o', 00H, 'g', 00H
	DB	'r', 00H, 'a', 00H, 'm', 00H, ' ', 00H, 'F', 00H, 'i', 00H, 'l'
	DB	00H, 'e', 00H, 's', 00H, ' ', 00H, '(', 00H, 'x', 00H, '8', 00H
	DB	'6', 00H, ')', 00H, '\', 00H, 'M', 00H, 'i', 00H, 'c', 00H, 'r'
	DB	00H, 'o', 00H, 's', 00H, 'o', 00H, 'f', 00H, 't', 00H, ' ', 00H
	DB	'V', 00H, 'i', 00H, 's', 00H, 'u', 00H, 'a', 00H, 'l', 00H, ' '
	DB	00H, 'S', 00H, 't', 00H, 'u', 00H, 'd', 00H, 'i', 00H, 'o', 00H
	DB	'\', 00H, '2', 00H, '0', 00H, '1', 00H, '9', 00H, '\', 00H, 'C'
	DB	00H, 'o', 00H, 'm', 00H, 'm', 00H, 'u', 00H, 'n', 00H, 'i', 00H
	DB	't', 00H, 'y', 00H, '\', 00H, 'V', 00H, 'C', 00H, '\', 00H, 'T'
	DB	00H, 'o', 00H, 'o', 00H, 'l', 00H, 's', 00H, '\', 00H, 'M', 00H
	DB	'S', 00H, 'V', 00H, 'C', 00H, '\', 00H, '1', 00H, '4', 00H, '.'
	DB	00H, '2', 00H, '7', 00H, '.', 00H, '2', 00H, '9', 00H, '1', 00H
	DB	'1', 00H, '0', 00H, '\', 00H, 'i', 00H, 'n', 00H, 'c', 00H, 'l'
	DB	00H, 'u', 00H, 'd', 00H, 'e', 00H, '\', 00H, 'v', 00H, 'e', 00H
	DB	'c', 00H, 't', 00H, 'o', 00H, 'r', 00H, 00H, 00H ; `string'
CONST	ENDS
;	COMDAT ??_C@_0GH@HACIOKNJ@C?3?2Program?5Files?5?$CIx86?$CJ?2Microsof@
CONST	SEGMENT
??_C@_0GH@HACIOKNJ@C?3?2Program?5Files?5?$CIx86?$CJ?2Microsof@ DB 'C:\Pro'
	DB	'gram Files (x86)\Microsoft Visual Studio\2019\Community\VC\To'
	DB	'ols\MSVC\14.27.29110\include\vector', 00H	; `string'
CONST	ENDS
;	COMDAT ??_C@_0DC@KEKNBAEB@can?8t?5increment?5value?9initializ@
CONST	SEGMENT
??_C@_0DC@KEKNBAEB@can?8t?5increment?5value?9initializ@ DB 'can''t increm'
	DB	'ent value-initialized vector iterator', 00H	; `string'
CONST	ENDS
;	COMDAT ??_C@_1FE@EKNHDPMB@?$AA0?$AA?5?$AA?$CG?$AA?$CG?$AA?5?$AA?$CC?$AA?$DM?$AAF?$AAz?$AAO?$AAR?$AA?3?$AA?3?$AAO?$AAR@
CONST	SEGMENT
??_C@_1FE@EKNHDPMB@?$AA0?$AA?5?$AA?$CG?$AA?$CG?$AA?5?$AA?$CC?$AA?$DM?$AAF?$AAz?$AAO?$AAR?$AA?3?$AA?3?$AAO?$AAR@ DB '0'
	DB	00H, ' ', 00H, '&', 00H, '&', 00H, ' ', 00H, '"', 00H, '<', 00H
	DB	'F', 00H, 'z', 00H, 'O', 00H, 'R', 00H, ':', 00H, ':', 00H, 'O'
	DB	00H, 'R', 00H, 'w', 00H, 'i', 00H, 't', 00H, 'h', 00H, 'D', 00H
	DB	'O', 00H, 'M', 00H, '>', 00H, ':', 00H, ' ', 00H, 'i', 00H, 'n'
	DB	00H, 'v', 00H, 'a', 00H, 'l', 00H, 'i', 00H, 'd', 00H, ' ', 00H
	DB	'c', 00H, 'o', 00H, 'n', 00H, 't', 00H, 'e', 00H, 'x', 00H, 't'
	DB	00H, '"', 00H, 00H, 00H			; `string'
CONST	ENDS
;	COMDAT ??_C@_1FC@EJGEACIH@?$AA0?$AA?5?$AA?$CG?$AA?$CG?$AA?5?$AA?$CC?$AA?$DM?$AAF?$AAz?$AAO?$AAR?$AA?3?$AA?3?$AAC?$AAl@
CONST	SEGMENT
??_C@_1FC@EJGEACIH@?$AA0?$AA?5?$AA?$CG?$AA?$CG?$AA?5?$AA?$CC?$AA?$DM?$AAF?$AAz?$AAO?$AAR?$AA?3?$AA?3?$AAC?$AAl@ DB '0'
	DB	00H, ' ', 00H, '&', 00H, '&', 00H, ' ', 00H, '"', 00H, '<', 00H
	DB	'F', 00H, 'z', 00H, 'O', 00H, 'R', 00H, ':', 00H, ':', 00H, 'C'
	DB	00H, 'l', 00H, 'e', 00H, 'a', 00H, 'r', 00H, 'D', 00H, 'O', 00H
	DB	'M', 00H, '>', 00H, ':', 00H, ' ', 00H, 'i', 00H, 'n', 00H, 'v'
	DB	00H, 'a', 00H, 'l', 00H, 'i', 00H, 'd', 00H, ' ', 00H, 'c', 00H
	DB	'o', 00H, 'n', 00H, 't', 00H, 'e', 00H, 'x', 00H, 't', 00H, '"'
	DB	00H, 00H, 00H				; `string'
CONST	ENDS
;	COMDAT ??_C@_1KI@BFAJCJNO@?$AAF?$AA?3?$AA?2?$AAT?$PP?i?$AAl?$PP?i?$AAc?$AAh?$AAa?$AAr?$AAg?$AAe?$AAm?$AAe@
CONST	SEGMENT
??_C@_1KI@BFAJCJNO@?$AAF?$AA?3?$AA?2?$AAT?$PP?i?$AAl?$PP?i?$AAc?$AAh?$AAa?$AAr?$AAg?$AAe?$AAm?$AAe@ DB 'F'
	DB	00H, ':', 00H, '\', 00H, 'T', 00H, 0e9H, 00H, 'l', 00H, 0e9H, 00H
	DB	'c', 00H, 'h', 00H, 'a', 00H, 'r', 00H, 'g', 00H, 'e', 00H, 'm'
	DB	00H, 'e', 00H, 'n', 00H, 't', 00H, 's', 00H, '\', 00H, 's', 00H
	DB	'o', 00H, 'l', 00H, 'u', 00H, 't', 00H, 'i', 00H, 'o', 00H, 'n'
	DB	00H, '_', 00H, 'l', 00H, 'a', 00H, 'b', 00H, '_', 00H, 'a', 00H
	DB	'p', 00H, 'p', 00H, 'r', 00H, 'e', 00H, 'n', 00H, 't', 00H, 'i'
	DB	00H, 's', 00H, 's', 00H, 'a', 00H, 'g', 00H, 'e', 00H, ' ', 00H
	DB	'-', 00H, ' ', 00H, 'C', 00H, 'o', 00H, 'p', 00H, 'i', 00H, 'e'
	DB	00H, '\', 00H, 'C', 00H, 'o', 00H, 'm', 00H, 'm', 00H, 'o', 00H
	DB	'n', 00H, '\', 00H, 'f', 00H, 'u', 00H, 'z', 00H, 'z', 00H, 'y'
	DB	00H, '\', 00H, 'F', 00H, 'u', 00H, 'z', 00H, 'z', 00H, 'y', 00H
	DB	'O', 00H, 'p', 00H, 'e', 00H, 'r', 00H, 'a', 00H, 't', 00H, 'o'
	DB	00H, 'r', 00H, 's', 00H, '.', 00H, 'h', 00H, 00H, 00H ; `string'
CONST	ENDS
;	COMDAT ??_7FzOR@@6B@
CONST	SEGMENT
??_7FzOR@@6B@ DD FLAT:??_R4FzOR@@6B@			; FzOR::`vftable'
	DD	FLAT:??_EFzOR@@UAEPAXI@Z
	DD	FLAT:?Clone@FzOR@@UBEPAVFuzzyTerm@@XZ
	DD	FLAT:?GetDOM@FzOR@@UBENXZ
	DD	FLAT:?ClearDOM@FzOR@@UAEXXZ
	DD	FLAT:?ORwithDOM@FzOR@@UAEXN@Z
CONST	ENDS
;	COMDAT ??_7FzAND@@6B@
CONST	SEGMENT
??_7FzAND@@6B@ DD FLAT:??_R4FzAND@@6B@			; FzAND::`vftable'
	DD	FLAT:??_EFzAND@@UAEPAXI@Z
	DD	FLAT:?Clone@FzAND@@UBEPAVFuzzyTerm@@XZ
	DD	FLAT:?GetDOM@FzAND@@UBENXZ
	DD	FLAT:?ClearDOM@FzAND@@UAEXXZ
	DD	FLAT:?ORwithDOM@FzAND@@UAEXN@Z
CONST	ENDS
;	COMDAT ??_7FuzzyTerm@@6B@
CONST	SEGMENT
??_7FuzzyTerm@@6B@ DD FLAT:??_R4FuzzyTerm@@6B@		; FuzzyTerm::`vftable'
	DD	FLAT:??_EFuzzyTerm@@UAEPAXI@Z
	DD	FLAT:__purecall
	DD	FLAT:__purecall
	DD	FLAT:__purecall
	DD	FLAT:__purecall
CONST	ENDS
;	COMDAT ??_C@_1DG@PLBPCAEM@?$AA?$CC?$AAI?$AAT?$AAE?$AAR?$AAA?$AAT?$AAO?$AAR?$AA?5?$AAL?$AAI?$AAS?$AAT?$AA?5@
CONST	SEGMENT
??_C@_1DG@PLBPCAEM@?$AA?$CC?$AAI?$AAT?$AAE?$AAR?$AAA?$AAT?$AAO?$AAR?$AA?5?$AAL?$AAI?$AAS?$AAT?$AA?5@ DB '"'
	DB	00H, 'I', 00H, 'T', 00H, 'E', 00H, 'R', 00H, 'A', 00H, 'T', 00H
	DB	'O', 00H, 'R', 00H, ' ', 00H, 'L', 00H, 'I', 00H, 'S', 00H, 'T'
	DB	00H, ' ', 00H, 'C', 00H, 'O', 00H, 'R', 00H, 'R', 00H, 'U', 00H
	DB	'P', 00H, 'T', 00H, 'E', 00H, 'D', 00H, '!', 00H, '"', 00H, 00H
	DB	00H						; `string'
CONST	ENDS
;	COMDAT ??_C@_1EE@KLDMFDFL@?$AAs?$AAt?$AAd?$AA?3?$AA?3?$AA_?$AAI?$AAt?$AAe?$AAr?$AAa?$AAt?$AAo?$AAr?$AA_@
CONST	SEGMENT
??_C@_1EE@KLDMFDFL@?$AAs?$AAt?$AAd?$AA?3?$AA?3?$AA_?$AAI?$AAt?$AAe?$AAr?$AAa?$AAt?$AAo?$AAr?$AA_@ DB 's'
	DB	00H, 't', 00H, 'd', 00H, ':', 00H, ':', 00H, '_', 00H, 'I', 00H
	DB	't', 00H, 'e', 00H, 'r', 00H, 'a', 00H, 't', 00H, 'o', 00H, 'r'
	DB	00H, '_', 00H, 'b', 00H, 'a', 00H, 's', 00H, 'e', 00H, '1', 00H
	DB	'2', 00H, ':', 00H, ':', 00H, '_', 00H, 'O', 00H, 'r', 00H, 'p'
	DB	00H, 'h', 00H, 'a', 00H, 'n', 00H, '_', 00H, 'm', 00H, 'e', 00H
	DB	00H, 00H					; `string'
CONST	ENDS
;	COMDAT ??_C@_0BJ@LFDBABJJ@ITERATOR?5LIST?5CORRUPTED?$CB@
CONST	SEGMENT
??_C@_0BJ@LFDBABJJ@ITERATOR?5LIST?5CORRUPTED?$CB@ DB 'ITERATOR LIST CORRU'
	DB	'PTED!', 00H					; `string'
CONST	ENDS
;	COMDAT ??_C@_1CG@JNLFBNGN@?$AA?$CC?$AAi?$AAn?$AAv?$AAa?$AAl?$AAi?$AAd?$AA?5?$AAa?$AAr?$AAg?$AAu?$AAm?$AAe@
CONST	SEGMENT
??_C@_1CG@JNLFBNGN@?$AA?$CC?$AAi?$AAn?$AAv?$AAa?$AAl?$AAi?$AAd?$AA?5?$AAa?$AAr?$AAg?$AAu?$AAm?$AAe@ DB '"'
	DB	00H, 'i', 00H, 'n', 00H, 'v', 00H, 'a', 00H, 'l', 00H, 'i', 00H
	DB	'd', 00H, ' ', 00H, 'a', 00H, 'r', 00H, 'g', 00H, 'u', 00H, 'm'
	DB	00H, 'e', 00H, 'n', 00H, 't', 00H, '"', 00H, 00H, 00H ; `string'
CONST	ENDS
;	COMDAT ??_C@_1EK@NIFDJFDG@?$AAs?$AAt?$AAd?$AA?3?$AA?3?$AA_?$AAA?$AAd?$AAj?$AAu?$AAs?$AAt?$AA_?$AAm?$AAa@
CONST	SEGMENT
??_C@_1EK@NIFDJFDG@?$AAs?$AAt?$AAd?$AA?3?$AA?3?$AA_?$AAA?$AAd?$AAj?$AAu?$AAs?$AAt?$AA_?$AAm?$AAa@ DB 's'
	DB	00H, 't', 00H, 'd', 00H, ':', 00H, ':', 00H, '_', 00H, 'A', 00H
	DB	'd', 00H, 'j', 00H, 'u', 00H, 's', 00H, 't', 00H, '_', 00H, 'm'
	DB	00H, 'a', 00H, 'n', 00H, 'u', 00H, 'a', 00H, 'l', 00H, 'l', 00H
	DB	'y', 00H, '_', 00H, 'v', 00H, 'e', 00H, 'c', 00H, 't', 00H, 'o'
	DB	00H, 'r', 00H, '_', 00H, 'a', 00H, 'l', 00H, 'i', 00H, 'g', 00H
	DB	'n', 00H, 'e', 00H, 'd', 00H, 00H, 00H	; `string'
CONST	ENDS
;	COMDAT ??_C@_1NA@FEEOBALC@?$AAC?$AA?3?$AA?2?$AAP?$AAr?$AAo?$AAg?$AAr?$AAa?$AAm?$AA?5?$AAF?$AAi?$AAl?$AAe@
CONST	SEGMENT
??_C@_1NA@FEEOBALC@?$AAC?$AA?3?$AA?2?$AAP?$AAr?$AAo?$AAg?$AAr?$AAa?$AAm?$AA?5?$AAF?$AAi?$AAl?$AAe@ DB 'C'
	DB	00H, ':', 00H, '\', 00H, 'P', 00H, 'r', 00H, 'o', 00H, 'g', 00H
	DB	'r', 00H, 'a', 00H, 'm', 00H, ' ', 00H, 'F', 00H, 'i', 00H, 'l'
	DB	00H, 'e', 00H, 's', 00H, ' ', 00H, '(', 00H, 'x', 00H, '8', 00H
	DB	'6', 00H, ')', 00H, '\', 00H, 'M', 00H, 'i', 00H, 'c', 00H, 'r'
	DB	00H, 'o', 00H, 's', 00H, 'o', 00H, 'f', 00H, 't', 00H, ' ', 00H
	DB	'V', 00H, 'i', 00H, 's', 00H, 'u', 00H, 'a', 00H, 'l', 00H, ' '
	DB	00H, 'S', 00H, 't', 00H, 'u', 00H, 'd', 00H, 'i', 00H, 'o', 00H
	DB	'\', 00H, '2', 00H, '0', 00H, '1', 00H, '9', 00H, '\', 00H, 'C'
	DB	00H, 'o', 00H, 'm', 00H, 'm', 00H, 'u', 00H, 'n', 00H, 'i', 00H
	DB	't', 00H, 'y', 00H, '\', 00H, 'V', 00H, 'C', 00H, '\', 00H, 'T'
	DB	00H, 'o', 00H, 'o', 00H, 'l', 00H, 's', 00H, '\', 00H, 'M', 00H
	DB	'S', 00H, 'V', 00H, 'C', 00H, '\', 00H, '1', 00H, '4', 00H, '.'
	DB	00H, '2', 00H, '7', 00H, '.', 00H, '2', 00H, '9', 00H, '1', 00H
	DB	'1', 00H, '0', 00H, '\', 00H, 'i', 00H, 'n', 00H, 'c', 00H, 'l'
	DB	00H, 'u', 00H, 'd', 00H, 'e', 00H, '\', 00H, 'x', 00H, 'm', 00H
	DB	'e', 00H, 'm', 00H, 'o', 00H, 'r', 00H, 'y', 00H, 00H, 00H ; `string'
CONST	ENDS
;	COMDAT ??_C@_0GI@JMEOMKJO@C?3?2Program?5Files?5?$CIx86?$CJ?2Microsof@
CONST	SEGMENT
??_C@_0GI@JMEOMKJO@C?3?2Program?5Files?5?$CIx86?$CJ?2Microsof@ DB 'C:\Pro'
	DB	'gram Files (x86)\Microsoft Visual Studio\2019\Community\VC\To'
	DB	'ols\MSVC\14.27.29110\include\xmemory', 00H	; `string'
CONST	ENDS
;	COMDAT ??_C@_02DKCKIIND@?$CFs@
CONST	SEGMENT
??_C@_02DKCKIIND@?$CFs@ DB '%s', 00H			; `string'
CONST	ENDS
;	COMDAT ??_C@_0BB@FCMFBGOM@invalid?5argument@
CONST	SEGMENT
??_C@_0BB@FCMFBGOM@invalid?5argument@ DB 'invalid argument', 00H ; `string'
CONST	ENDS
;	COMDAT __CT??_R0?AVexception@std@@@8??0exception@std@@QAE@ABV01@@Z12
xdata$x	SEGMENT
__CT??_R0?AVexception@std@@@8??0exception@std@@QAE@ABV01@@Z12 DD 00H
	DD	FLAT:??_R0?AVexception@std@@@8
	DD	00H
	DD	0ffffffffH
	ORG $+4
	DD	0cH
	DD	FLAT:??0exception@std@@QAE@ABV01@@Z
xdata$x	ENDS
;	COMDAT ??_R0?AVexception@std@@@8
data$r	SEGMENT
??_R0?AVexception@std@@@8 DD FLAT:??_7type_info@@6B@	; std::exception `RTTI Type Descriptor'
	DD	00H
	DB	'.?AVexception@std@@', 00H
data$r	ENDS
;	COMDAT __CT??_R0?AVbad_alloc@std@@@8??0bad_alloc@std@@QAE@ABV01@@Z12
xdata$x	SEGMENT
__CT??_R0?AVbad_alloc@std@@@8??0bad_alloc@std@@QAE@ABV01@@Z12 DD 010H
	DD	FLAT:??_R0?AVbad_alloc@std@@@8
	DD	00H
	DD	0ffffffffH
	ORG $+4
	DD	0cH
	DD	FLAT:??0bad_alloc@std@@QAE@ABV01@@Z
xdata$x	ENDS
;	COMDAT ??_R0?AVbad_alloc@std@@@8
data$r	SEGMENT
??_R0?AVbad_alloc@std@@@8 DD FLAT:??_7type_info@@6B@	; std::bad_alloc `RTTI Type Descriptor'
	DD	00H
	DB	'.?AVbad_alloc@std@@', 00H
data$r	ENDS
;	COMDAT __CT??_R0?AVbad_array_new_length@std@@@8??0bad_array_new_length@std@@QAE@ABV01@@Z12
xdata$x	SEGMENT
__CT??_R0?AVbad_array_new_length@std@@@8??0bad_array_new_length@std@@QAE@ABV01@@Z12 DD 00H
	DD	FLAT:??_R0?AVbad_array_new_length@std@@@8
	DD	00H
	DD	0ffffffffH
	ORG $+4
	DD	0cH
	DD	FLAT:??0bad_array_new_length@std@@QAE@ABV01@@Z
xdata$x	ENDS
;	COMDAT ??_R0?AVbad_array_new_length@std@@@8
data$r	SEGMENT
??_R0?AVbad_array_new_length@std@@@8 DD FLAT:??_7type_info@@6B@ ; std::bad_array_new_length `RTTI Type Descriptor'
	DD	00H
	DB	'.?AVbad_array_new_length@std@@', 00H
data$r	ENDS
;	COMDAT __CTA3?AVbad_array_new_length@std@@
xdata$x	SEGMENT
__CTA3?AVbad_array_new_length@std@@ DD 03H
	DD	FLAT:__CT??_R0?AVbad_array_new_length@std@@@8??0bad_array_new_length@std@@QAE@ABV01@@Z12
	DD	FLAT:__CT??_R0?AVbad_alloc@std@@@8??0bad_alloc@std@@QAE@ABV01@@Z12
	DD	FLAT:__CT??_R0?AVexception@std@@@8??0exception@std@@QAE@ABV01@@Z12
xdata$x	ENDS
;	COMDAT __TI3?AVbad_array_new_length@std@@
xdata$x	SEGMENT
__TI3?AVbad_array_new_length@std@@ DD 00H
	DD	FLAT:??1bad_array_new_length@std@@UAE@XZ
	DD	00H
	DD	FLAT:__CTA3?AVbad_array_new_length@std@@
xdata$x	ENDS
;	COMDAT ??_C@_0BF@KINCDENJ@bad?5array?5new?5length@
CONST	SEGMENT
??_C@_0BF@KINCDENJ@bad?5array?5new?5length@ DB 'bad array new length', 00H ; `string'
CONST	ENDS
;	COMDAT ??_7bad_array_new_length@std@@6B@
CONST	SEGMENT
??_7bad_array_new_length@std@@6B@ DD FLAT:??_R4bad_array_new_length@std@@6B@ ; std::bad_array_new_length::`vftable'
	DD	FLAT:??_Ebad_array_new_length@std@@UAEPAXI@Z
	DD	FLAT:?what@exception@std@@UBEPBDXZ
CONST	ENDS
;	COMDAT ??_7bad_alloc@std@@6B@
CONST	SEGMENT
??_7bad_alloc@std@@6B@ DD FLAT:??_R4bad_alloc@std@@6B@	; std::bad_alloc::`vftable'
	DD	FLAT:??_Ebad_alloc@std@@UAEPAXI@Z
	DD	FLAT:?what@exception@std@@UBEPBDXZ
CONST	ENDS
;	COMDAT ??_C@_0BC@EOODALEL@Unknown?5exception@
CONST	SEGMENT
??_C@_0BC@EOODALEL@Unknown?5exception@ DB 'Unknown exception', 00H ; `string'
CONST	ENDS
;	COMDAT ??_7exception@std@@6B@
CONST	SEGMENT
??_7exception@std@@6B@ DD FLAT:??_R4exception@std@@6B@	; std::exception::`vftable'
	DD	FLAT:??_Eexception@std@@UAEPAXI@Z
	DD	FLAT:?what@exception@std@@UBEPBDXZ
CONST	ENDS
;	COMDAT xdata$x
xdata$x	SEGMENT
__ehfuncinfo$??$_Deallocate_plain@V?$allocator@U_Container_proxy@std@@@std@@@std@@YAXAAV?$allocator@U_Container_proxy@std@@@0@QAU_Container_proxy@0@@Z DD 019930522H
	DD	00H
	DD	00H
	DD	2 DUP(00H)
	DD	2 DUP(00H)
	DD	00H
	DD	05H
xdata$x	ENDS
;	COMDAT xdata$x
xdata$x	SEGMENT
__ehfuncinfo$??$_Deallocate@$07$0A@@std@@YAXPAXI@Z DD 019930522H
	DD	00H
	DD	00H
	DD	2 DUP(00H)
	DD	2 DUP(00H)
	DD	00H
	DD	05H
xdata$x	ENDS
;	COMDAT xdata$x
xdata$x	SEGMENT
__catchsym$??$_Emplace_reallocate@PAVFuzzyTerm@@@?$vector@PAVFuzzyTerm@@V?$allocator@PAVFuzzyTerm@@@std@@@std@@QAEPAPAVFuzzyTerm@@QAPAV2@$$QAPAV2@@Z$2 DD 040H
	DD	00H
	DD	00H
	DD	FLAT:__catch$??$_Emplace_reallocate@PAVFuzzyTerm@@@?$vector@PAVFuzzyTerm@@V?$allocator@PAVFuzzyTerm@@@std@@@std@@QAEPAPAVFuzzyTerm@@QAPAV2@$$QAPAV2@@Z$0
__unwindtable$??$_Emplace_reallocate@PAVFuzzyTerm@@@?$vector@PAVFuzzyTerm@@V?$allocator@PAVFuzzyTerm@@@std@@@std@@QAEPAPAVFuzzyTerm@@QAPAV2@$$QAPAV2@@Z DD 0ffffffffH
	DD	00H
	DD	0ffffffffH
	DD	00H
__tryblocktable$??$_Emplace_reallocate@PAVFuzzyTerm@@@?$vector@PAVFuzzyTerm@@V?$allocator@PAVFuzzyTerm@@@std@@@std@@QAEPAPAVFuzzyTerm@@QAPAV2@$$QAPAV2@@Z DD 00H
	DD	00H
	DD	01H
	DD	01H
	DD	FLAT:__catchsym$??$_Emplace_reallocate@PAVFuzzyTerm@@@?$vector@PAVFuzzyTerm@@V?$allocator@PAVFuzzyTerm@@@std@@@std@@QAEPAPAVFuzzyTerm@@QAPAV2@$$QAPAV2@@Z$2
__ehfuncinfo$??$_Emplace_reallocate@PAVFuzzyTerm@@@?$vector@PAVFuzzyTerm@@V?$allocator@PAVFuzzyTerm@@@std@@@std@@QAEPAPAVFuzzyTerm@@QAPAV2@$$QAPAV2@@Z DD 019930522H
	DD	02H
	DD	FLAT:__unwindtable$??$_Emplace_reallocate@PAVFuzzyTerm@@@?$vector@PAVFuzzyTerm@@V?$allocator@PAVFuzzyTerm@@@std@@@std@@QAEPAPAVFuzzyTerm@@QAPAV2@$$QAPAV2@@Z
	DD	01H
	DD	FLAT:__tryblocktable$??$_Emplace_reallocate@PAVFuzzyTerm@@@?$vector@PAVFuzzyTerm@@V?$allocator@PAVFuzzyTerm@@@std@@@std@@QAEPAPAVFuzzyTerm@@QAPAV2@$$QAPAV2@@Z
	DD	2 DUP(00H)
	DD	00H
	DD	01H
xdata$x	ENDS
;	COMDAT xdata$x
xdata$x	SEGMENT
__unwindtable$?GetDOM@FzOR@@UBENXZ DD 0ffffffffH
	DD	FLAT:__unwindfunclet$?GetDOM@FzOR@@UBENXZ$0
	DD	00H
	DD	FLAT:__unwindfunclet$?GetDOM@FzOR@@UBENXZ$2
__ehfuncinfo$?GetDOM@FzOR@@UBENXZ DD 019930522H
	DD	02H
	DD	FLAT:__unwindtable$?GetDOM@FzOR@@UBENXZ
	DD	2 DUP(00H)
	DD	2 DUP(00H)
	DD	00H
	DD	01H
xdata$x	ENDS
;	COMDAT xdata$x
xdata$x	SEGMENT
__unwindtable$?Clone@FzOR@@UBEPAVFuzzyTerm@@XZ DD 0ffffffffH
	DD	FLAT:__unwindfunclet$?Clone@FzOR@@UBEPAVFuzzyTerm@@XZ$0
__ehfuncinfo$?Clone@FzOR@@UBEPAVFuzzyTerm@@XZ DD 019930522H
	DD	01H
	DD	FLAT:__unwindtable$?Clone@FzOR@@UBEPAVFuzzyTerm@@XZ
	DD	2 DUP(00H)
	DD	2 DUP(00H)
	DD	00H
	DD	01H
xdata$x	ENDS
;	COMDAT xdata$x
xdata$x	SEGMENT
__unwindtable$??0FzOR@@QAE@AAVFuzzyTerm@@000@Z DD 0ffffffffH
	DD	FLAT:__unwindfunclet$??0FzOR@@QAE@AAVFuzzyTerm@@000@Z$0
	DD	00H
	DD	FLAT:__unwindfunclet$??0FzOR@@QAE@AAVFuzzyTerm@@000@Z$1
__ehfuncinfo$??0FzOR@@QAE@AAVFuzzyTerm@@000@Z DD 019930522H
	DD	02H
	DD	FLAT:__unwindtable$??0FzOR@@QAE@AAVFuzzyTerm@@000@Z
	DD	2 DUP(00H)
	DD	2 DUP(00H)
	DD	00H
	DD	01H
xdata$x	ENDS
;	COMDAT xdata$x
xdata$x	SEGMENT
__unwindtable$??0FzOR@@QAE@AAVFuzzyTerm@@00@Z DD 0ffffffffH
	DD	FLAT:__unwindfunclet$??0FzOR@@QAE@AAVFuzzyTerm@@00@Z$0
	DD	00H
	DD	FLAT:__unwindfunclet$??0FzOR@@QAE@AAVFuzzyTerm@@00@Z$1
__ehfuncinfo$??0FzOR@@QAE@AAVFuzzyTerm@@00@Z DD 019930522H
	DD	02H
	DD	FLAT:__unwindtable$??0FzOR@@QAE@AAVFuzzyTerm@@00@Z
	DD	2 DUP(00H)
	DD	2 DUP(00H)
	DD	00H
	DD	01H
xdata$x	ENDS
;	COMDAT xdata$x
xdata$x	SEGMENT
__unwindtable$??0FzOR@@QAE@AAVFuzzyTerm@@0@Z DD 0ffffffffH
	DD	FLAT:__unwindfunclet$??0FzOR@@QAE@AAVFuzzyTerm@@0@Z$0
	DD	00H
	DD	FLAT:__unwindfunclet$??0FzOR@@QAE@AAVFuzzyTerm@@0@Z$1
__ehfuncinfo$??0FzOR@@QAE@AAVFuzzyTerm@@0@Z DD 019930522H
	DD	02H
	DD	FLAT:__unwindtable$??0FzOR@@QAE@AAVFuzzyTerm@@0@Z
	DD	2 DUP(00H)
	DD	2 DUP(00H)
	DD	00H
	DD	01H
xdata$x	ENDS
;	COMDAT xdata$x
xdata$x	SEGMENT
__unwindtable$??0FzOR@@QAE@ABV0@@Z DD 0ffffffffH
	DD	FLAT:__unwindfunclet$??0FzOR@@QAE@ABV0@@Z$0
	DD	00H
	DD	FLAT:__unwindfunclet$??0FzOR@@QAE@ABV0@@Z$1
	DD	01H
	DD	FLAT:__unwindfunclet$??0FzOR@@QAE@ABV0@@Z$2
	DD	02H
	DD	FLAT:__unwindfunclet$??0FzOR@@QAE@ABV0@@Z$4
__ehfuncinfo$??0FzOR@@QAE@ABV0@@Z DD 019930522H
	DD	04H
	DD	FLAT:__unwindtable$??0FzOR@@QAE@ABV0@@Z
	DD	2 DUP(00H)
	DD	2 DUP(00H)
	DD	00H
	DD	01H
xdata$x	ENDS
;	COMDAT xdata$x
xdata$x	SEGMENT
__ehfuncinfo$??1FzOR@@UAE@XZ DD 019930522H
	DD	00H
	DD	00H
	DD	2 DUP(00H)
	DD	2 DUP(00H)
	DD	00H
	DD	05H
xdata$x	ENDS
;	COMDAT xdata$x
xdata$x	SEGMENT
__unwindtable$?ORwithDOM@FzAND@@UAEXN@Z DD 0ffffffffH
	DD	FLAT:__unwindfunclet$?ORwithDOM@FzAND@@UAEXN@Z$0
	DD	00H
	DD	FLAT:__unwindfunclet$?ORwithDOM@FzAND@@UAEXN@Z$2
__ehfuncinfo$?ORwithDOM@FzAND@@UAEXN@Z DD 019930522H
	DD	02H
	DD	FLAT:__unwindtable$?ORwithDOM@FzAND@@UAEXN@Z
	DD	2 DUP(00H)
	DD	2 DUP(00H)
	DD	00H
	DD	01H
xdata$x	ENDS
;	COMDAT xdata$x
xdata$x	SEGMENT
__unwindtable$?ClearDOM@FzAND@@UAEXXZ DD 0ffffffffH
	DD	FLAT:__unwindfunclet$?ClearDOM@FzAND@@UAEXXZ$0
	DD	00H
	DD	FLAT:__unwindfunclet$?ClearDOM@FzAND@@UAEXXZ$2
__ehfuncinfo$?ClearDOM@FzAND@@UAEXXZ DD 019930522H
	DD	02H
	DD	FLAT:__unwindtable$?ClearDOM@FzAND@@UAEXXZ
	DD	2 DUP(00H)
	DD	2 DUP(00H)
	DD	00H
	DD	01H
xdata$x	ENDS
;	COMDAT xdata$x
xdata$x	SEGMENT
__unwindtable$?GetDOM@FzAND@@UBENXZ DD 0ffffffffH
	DD	FLAT:__unwindfunclet$?GetDOM@FzAND@@UBENXZ$0
	DD	00H
	DD	FLAT:__unwindfunclet$?GetDOM@FzAND@@UBENXZ$2
__ehfuncinfo$?GetDOM@FzAND@@UBENXZ DD 019930522H
	DD	02H
	DD	FLAT:__unwindtable$?GetDOM@FzAND@@UBENXZ
	DD	2 DUP(00H)
	DD	2 DUP(00H)
	DD	00H
	DD	01H
xdata$x	ENDS
;	COMDAT xdata$x
xdata$x	SEGMENT
__unwindtable$?Clone@FzAND@@UBEPAVFuzzyTerm@@XZ DD 0ffffffffH
	DD	FLAT:__unwindfunclet$?Clone@FzAND@@UBEPAVFuzzyTerm@@XZ$0
__ehfuncinfo$?Clone@FzAND@@UBEPAVFuzzyTerm@@XZ DD 019930522H
	DD	01H
	DD	FLAT:__unwindtable$?Clone@FzAND@@UBEPAVFuzzyTerm@@XZ
	DD	2 DUP(00H)
	DD	2 DUP(00H)
	DD	00H
	DD	01H
xdata$x	ENDS
;	COMDAT xdata$x
xdata$x	SEGMENT
__unwindtable$??0FzAND@@QAE@AAVFuzzyTerm@@000@Z DD 0ffffffffH
	DD	FLAT:__unwindfunclet$??0FzAND@@QAE@AAVFuzzyTerm@@000@Z$0
	DD	00H
	DD	FLAT:__unwindfunclet$??0FzAND@@QAE@AAVFuzzyTerm@@000@Z$1
__ehfuncinfo$??0FzAND@@QAE@AAVFuzzyTerm@@000@Z DD 019930522H
	DD	02H
	DD	FLAT:__unwindtable$??0FzAND@@QAE@AAVFuzzyTerm@@000@Z
	DD	2 DUP(00H)
	DD	2 DUP(00H)
	DD	00H
	DD	01H
xdata$x	ENDS
;	COMDAT xdata$x
xdata$x	SEGMENT
__unwindtable$??0FzAND@@QAE@AAVFuzzyTerm@@00@Z DD 0ffffffffH
	DD	FLAT:__unwindfunclet$??0FzAND@@QAE@AAVFuzzyTerm@@00@Z$0
	DD	00H
	DD	FLAT:__unwindfunclet$??0FzAND@@QAE@AAVFuzzyTerm@@00@Z$1
__ehfuncinfo$??0FzAND@@QAE@AAVFuzzyTerm@@00@Z DD 019930522H
	DD	02H
	DD	FLAT:__unwindtable$??0FzAND@@QAE@AAVFuzzyTerm@@00@Z
	DD	2 DUP(00H)
	DD	2 DUP(00H)
	DD	00H
	DD	01H
xdata$x	ENDS
;	COMDAT xdata$x
xdata$x	SEGMENT
__unwindtable$??0FzAND@@QAE@AAVFuzzyTerm@@0@Z DD 0ffffffffH
	DD	FLAT:__unwindfunclet$??0FzAND@@QAE@AAVFuzzyTerm@@0@Z$0
	DD	00H
	DD	FLAT:__unwindfunclet$??0FzAND@@QAE@AAVFuzzyTerm@@0@Z$1
__ehfuncinfo$??0FzAND@@QAE@AAVFuzzyTerm@@0@Z DD 019930522H
	DD	02H
	DD	FLAT:__unwindtable$??0FzAND@@QAE@AAVFuzzyTerm@@0@Z
	DD	2 DUP(00H)
	DD	2 DUP(00H)
	DD	00H
	DD	01H
xdata$x	ENDS
;	COMDAT xdata$x
xdata$x	SEGMENT
__unwindtable$??0FzAND@@QAE@ABV0@@Z DD 0ffffffffH
	DD	FLAT:__unwindfunclet$??0FzAND@@QAE@ABV0@@Z$0
	DD	00H
	DD	FLAT:__unwindfunclet$??0FzAND@@QAE@ABV0@@Z$1
	DD	01H
	DD	FLAT:__unwindfunclet$??0FzAND@@QAE@ABV0@@Z$2
	DD	02H
	DD	FLAT:__unwindfunclet$??0FzAND@@QAE@ABV0@@Z$4
__ehfuncinfo$??0FzAND@@QAE@ABV0@@Z DD 019930522H
	DD	04H
	DD	FLAT:__unwindtable$??0FzAND@@QAE@ABV0@@Z
	DD	2 DUP(00H)
	DD	2 DUP(00H)
	DD	00H
	DD	01H
xdata$x	ENDS
;	COMDAT xdata$x
xdata$x	SEGMENT
__ehfuncinfo$??1FzAND@@UAE@XZ DD 019930522H
	DD	00H
	DD	00H
	DD	2 DUP(00H)
	DD	2 DUP(00H)
	DD	00H
	DD	05H
xdata$x	ENDS
;	COMDAT xdata$x
xdata$x	SEGMENT
__ehfuncinfo$?_Tidy@?$vector@PAVFuzzyTerm@@V?$allocator@PAVFuzzyTerm@@@std@@@std@@AAEXXZ DD 019930522H
	DD	00H
	DD	00H
	DD	2 DUP(00H)
	DD	2 DUP(00H)
	DD	00H
	DD	05H
xdata$x	ENDS
;	COMDAT xdata$x
xdata$x	SEGMENT
__ehfuncinfo$??0?$vector@PAVFuzzyTerm@@V?$allocator@PAVFuzzyTerm@@@std@@@std@@QAE@XZ DD 019930522H
	DD	00H
	DD	00H
	DD	2 DUP(00H)
	DD	2 DUP(00H)
	DD	00H
	DD	05H
xdata$x	ENDS
; Function compile flags: /Odtp /RTCsu
; File C:\Program Files (x86)\Microsoft Visual Studio\2019\Community\VC\Tools\MSVC\14.27.29110\include\xutility
;	COMDAT ??$_Copy_memmove@PAPAVFuzzyTerm@@PAPAV1@@std@@YAPAPAVFuzzyTerm@@PAPAV1@00@Z
_TEXT	SEGMENT
__Count$ = -16						; size = 4
__Dest_ch$ = -12					; size = 4
__Last_ch$ = -8						; size = 4
__First_ch$ = -4					; size = 4
__First$ = 8						; size = 4
__Last$ = 12						; size = 4
__Dest$ = 16						; size = 4
??$_Copy_memmove@PAPAVFuzzyTerm@@PAPAV1@@std@@YAPAPAVFuzzyTerm@@PAPAV1@00@Z PROC ; std::_Copy_memmove<FuzzyTerm * *,FuzzyTerm * *>, COMDAT

; 4113 : _OutIt _Copy_memmove(_InIt _First, _InIt _Last, _OutIt _Dest) {

	push	ebp
	mov	ebp, esp
	sub	esp, 16					; 00000010H
	mov	eax, -858993460				; ccccccccH
	mov	DWORD PTR [ebp-16], eax
	mov	DWORD PTR [ebp-12], eax
	mov	DWORD PTR [ebp-8], eax
	mov	DWORD PTR [ebp-4], eax

; 4114 :     const char* const _First_ch = const_cast<const char*>(reinterpret_cast<const volatile char*>(_First));

	mov	eax, DWORD PTR __First$[ebp]
	mov	DWORD PTR __First_ch$[ebp], eax

; 4115 :     const char* const _Last_ch  = const_cast<const char*>(reinterpret_cast<const volatile char*>(_Last));

	mov	ecx, DWORD PTR __Last$[ebp]
	mov	DWORD PTR __Last_ch$[ebp], ecx

; 4116 :     char* const _Dest_ch        = const_cast<char*>(reinterpret_cast<volatile char*>(_Dest));

	mov	edx, DWORD PTR __Dest$[ebp]
	mov	DWORD PTR __Dest_ch$[ebp], edx

; 4117 :     const auto _Count           = static_cast<size_t>(_Last_ch - _First_ch);

	mov	eax, DWORD PTR __Last_ch$[ebp]
	sub	eax, DWORD PTR __First_ch$[ebp]
	mov	DWORD PTR __Count$[ebp], eax

; 4118 :     _CSTD memmove(_Dest_ch, _First_ch, _Count);

	mov	ecx, DWORD PTR __Count$[ebp]
	push	ecx
	mov	edx, DWORD PTR __First_ch$[ebp]
	push	edx
	mov	eax, DWORD PTR __Dest_ch$[ebp]
	push	eax
	call	_memmove
	add	esp, 12					; 0000000cH

; 4119 :     return reinterpret_cast<_OutIt>(_Dest_ch + _Count);

	mov	eax, DWORD PTR __Dest_ch$[ebp]
	add	eax, DWORD PTR __Count$[ebp]

; 4120 : }

	add	esp, 16					; 00000010H
	cmp	ebp, esp
	call	__RTC_CheckEsp
	mov	esp, ebp
	pop	ebp
	ret	0
??$_Copy_memmove@PAPAVFuzzyTerm@@PAPAV1@@std@@YAPAPAVFuzzyTerm@@PAPAV1@00@Z ENDP ; std::_Copy_memmove<FuzzyTerm * *,FuzzyTerm * *>
_TEXT	ENDS
; Function compile flags: /Odtp /RTCsu
; File C:\Program Files (x86)\Microsoft Visual Studio\2019\Community\VC\Tools\MSVC\14.27.29110\include\xutility
;	COMDAT ??$_Get_unwrapped@ABQAPAVFuzzyTerm@@@std@@YA@ABQAPAVFuzzyTerm@@@Z
_TEXT	SEGMENT
__It$ = 8						; size = 4
??$_Get_unwrapped@ABQAPAVFuzzyTerm@@@std@@YA@ABQAPAVFuzzyTerm@@@Z PROC ; std::_Get_unwrapped<FuzzyTerm * * const &>, COMDAT

; 1229 : _NODISCARD constexpr decltype(auto) _Get_unwrapped(_Iter&& _It) {

	push	ebp
	mov	ebp, esp

; 1230 :     // unwrap an iterator previously subjected to _Adl_verify_range or otherwise validated
; 1231 :     if constexpr (is_pointer_v<decay_t<_Iter>>) { // special-case pointers and arrays
; 1232 :         return _It + 0;

	mov	eax, DWORD PTR __It$[ebp]
	mov	eax, DWORD PTR [eax]

; 1233 :     } else if constexpr (_Unwrappable_v<_Iter>) {
; 1234 :         return static_cast<_Iter&&>(_It)._Unwrapped();
; 1235 :     } else {
; 1236 :         return static_cast<_Iter&&>(_It);
; 1237 :     }
; 1238 : }

	pop	ebp
	ret	0
??$_Get_unwrapped@ABQAPAVFuzzyTerm@@@std@@YA@ABQAPAVFuzzyTerm@@@Z ENDP ; std::_Get_unwrapped<FuzzyTerm * * const &>
_TEXT	ENDS
; Function compile flags: /Odtp /RTCsu
; File C:\Program Files (x86)\Microsoft Visual Studio\2019\Community\VC\Tools\MSVC\14.27.29110\include\xmemory
;	COMDAT ?deallocate@?$_Default_allocator_traits@V?$allocator@U_Container_proxy@std@@@std@@@std@@SAXAAV?$allocator@U_Container_proxy@std@@@2@QAU_Container_proxy@2@I@Z
_TEXT	SEGMENT
___formal$ = 8						; size = 4
__Ptr$ = 12						; size = 4
__Count$ = 16						; size = 4
?deallocate@?$_Default_allocator_traits@V?$allocator@U_Container_proxy@std@@@std@@@std@@SAXAAV?$allocator@U_Container_proxy@std@@@2@QAU_Container_proxy@2@I@Z PROC ; std::_Default_allocator_traits<std::allocator<std::_Container_proxy> >::deallocate, COMDAT

; 687  :     static void deallocate(_Alloc&, const pointer _Ptr, const size_type _Count) {

	push	ebp
	mov	ebp, esp

; 688  :         // no overflow check on the following multiply; we assume _Allocate did that check
; 689  :         _Deallocate<_New_alignof<value_type>>(_Ptr, sizeof(value_type) * _Count);

	mov	eax, DWORD PTR __Count$[ebp]
	shl	eax, 3
	push	eax
	mov	ecx, DWORD PTR __Ptr$[ebp]
	push	ecx
	call	??$_Deallocate@$07$0A@@std@@YAXPAXI@Z	; std::_Deallocate<8,0>
	add	esp, 8

; 690  :     }

	cmp	ebp, esp
	call	__RTC_CheckEsp
	pop	ebp
	ret	0
?deallocate@?$_Default_allocator_traits@V?$allocator@U_Container_proxy@std@@@std@@@std@@SAXAAV?$allocator@U_Container_proxy@std@@@2@QAU_Container_proxy@2@I@Z ENDP ; std::_Default_allocator_traits<std::allocator<std::_Container_proxy> >::deallocate
_TEXT	ENDS
; Function compile flags: /Odtp /RTCsu
; File C:\Program Files (x86)\Microsoft Visual Studio\2019\Community\VC\Tools\MSVC\14.27.29110\include\xmemory
;	COMDAT ??$_Get_size_of_n@$03@std@@YAII@Z
_TEXT	SEGMENT
__Max_possible$1 = -8					; size = 4
__Overflow_is_possible$ = -1				; size = 1
__Count$ = 8						; size = 4
??$_Get_size_of_n@$03@std@@YAII@Z PROC			; std::_Get_size_of_n<4>, COMDAT

; 55   : _NODISCARD constexpr size_t _Get_size_of_n(const size_t _Count) {

	push	ebp
	mov	ebp, esp
	sub	esp, 8
	mov	DWORD PTR [ebp-8], -858993460		; ccccccccH
	mov	DWORD PTR [ebp-4], -858993460		; ccccccccH

; 56   :     constexpr bool _Overflow_is_possible = _Ty_size > 1;

	mov	BYTE PTR __Overflow_is_possible$[ebp], 1

; 57   : 
; 58   :     if _CONSTEXPR_IF (_Overflow_is_possible) {
; 59   :         constexpr size_t _Max_possible = static_cast<size_t>(-1) / _Ty_size;

	mov	DWORD PTR __Max_possible$1[ebp], 1073741823 ; 3fffffffH

; 60   :         if (_Count > _Max_possible) {

	cmp	DWORD PTR __Count$[ebp], 1073741823	; 3fffffffH
	jbe	SHORT $LN2@Get_size_o

; 61   :             _Throw_bad_array_new_length(); // multiply overflow

	call	?_Throw_bad_array_new_length@std@@YAXXZ	; std::_Throw_bad_array_new_length
$LN2@Get_size_o:

; 62   :         }
; 63   :     }
; 64   : 
; 65   :     return _Count * _Ty_size;

	mov	eax, DWORD PTR __Count$[ebp]
	shl	eax, 2
$LN3@Get_size_o:

; 66   : }

	add	esp, 8
	cmp	ebp, esp
	call	__RTC_CheckEsp
	mov	esp, ebp
	pop	ebp
	ret	0
??$_Get_size_of_n@$03@std@@YAII@Z ENDP			; std::_Get_size_of_n<4>
_TEXT	ENDS
; Function compile flags: /Odtp /RTCsu
; File C:\Program Files (x86)\Microsoft Visual Studio\2019\Community\VC\Tools\MSVC\14.27.29110\include\xmemory
;	COMDAT ??$_Uninitialized_move@PAPAVFuzzyTerm@@V?$allocator@PAVFuzzyTerm@@@std@@@std@@YAPAPAVFuzzyTerm@@QAPAV1@0PAPAV1@AAV?$allocator@PAVFuzzyTerm@@@0@@Z
_TEXT	SEGMENT
__ULast$ = -8						; size = 4
__UFirst$ = -4						; size = 4
__First$ = 8						; size = 4
__Last$ = 12						; size = 4
__Dest$ = 16						; size = 4
__Al$ = 20						; size = 4
??$_Uninitialized_move@PAPAVFuzzyTerm@@V?$allocator@PAVFuzzyTerm@@@std@@@std@@YAPAPAVFuzzyTerm@@QAPAV1@0PAPAV1@AAV?$allocator@PAVFuzzyTerm@@@0@@Z PROC ; std::_Uninitialized_move<FuzzyTerm * *,std::allocator<FuzzyTerm *> >, COMDAT

; 1647 :     const _InIt _First, const _InIt _Last, _Alloc_ptr_t<_Alloc> _Dest, _Alloc& _Al) {

	push	ebp
	mov	ebp, esp
	sub	esp, 8
	mov	DWORD PTR [ebp-8], -858993460		; ccccccccH
	mov	DWORD PTR [ebp-4], -858993460		; ccccccccH

; 1648 :     // move [_First, _Last) to raw _Dest, using _Al
; 1649 :     // note: only called internally from elsewhere in the STL
; 1650 :     using _Ptrval     = typename _Alloc::value_type*;
; 1651 :     auto _UFirst      = _Get_unwrapped(_First);

	lea	eax, DWORD PTR __First$[ebp]
	push	eax
	call	??$_Get_unwrapped@ABQAPAVFuzzyTerm@@@std@@YA@ABQAPAVFuzzyTerm@@@Z ; std::_Get_unwrapped<FuzzyTerm * * const &>
	add	esp, 4
	mov	DWORD PTR __UFirst$[ebp], eax

; 1652 :     const auto _ULast = _Get_unwrapped(_Last);

	lea	ecx, DWORD PTR __Last$[ebp]
	push	ecx
	call	??$_Get_unwrapped@ABQAPAVFuzzyTerm@@@std@@YA@ABQAPAVFuzzyTerm@@@Z ; std::_Get_unwrapped<FuzzyTerm * * const &>
	add	esp, 4
	mov	DWORD PTR __ULast$[ebp], eax

; 1653 :     if constexpr (conjunction_v<bool_constant<_Ptr_move_cat<decltype(_UFirst), _Ptrval>::_Really_trivial>,
; 1654 :                       _Uses_default_construct<_Alloc, _Ptrval, decltype(_STD move(*_UFirst))>>) {
; 1655 :         _Copy_memmove(_UFirst, _ULast, _Unfancy(_Dest));

	mov	edx, DWORD PTR __Dest$[ebp]
	push	edx
	call	??$_Unfancy@PAVFuzzyTerm@@@std@@YAPAPAVFuzzyTerm@@PAPAV1@@Z ; std::_Unfancy<FuzzyTerm *>
	add	esp, 4
	push	eax
	mov	eax, DWORD PTR __ULast$[ebp]
	push	eax
	mov	ecx, DWORD PTR __UFirst$[ebp]
	push	ecx
	call	??$_Copy_memmove@PAPAVFuzzyTerm@@PAPAV1@@std@@YAPAPAVFuzzyTerm@@PAPAV1@00@Z ; std::_Copy_memmove<FuzzyTerm * *,FuzzyTerm * *>
	add	esp, 12					; 0000000cH

; 1656 :         return _Dest + (_ULast - _UFirst);

	mov	edx, DWORD PTR __ULast$[ebp]
	sub	edx, DWORD PTR __UFirst$[ebp]
	sar	edx, 2
	mov	eax, DWORD PTR __Dest$[ebp]
	lea	eax, DWORD PTR [eax+edx*4]

; 1657 :     } else {
; 1658 :         _Uninitialized_backout_al<_Alloc> _Backout{_Dest, _Al};
; 1659 :         for (; _UFirst != _ULast; ++_UFirst) {
; 1660 :             _Backout._Emplace_back(_STD move(*_UFirst));
; 1661 :         }
; 1662 : 
; 1663 :         return _Backout._Release();
; 1664 :     }
; 1665 : }

	add	esp, 8
	cmp	ebp, esp
	call	__RTC_CheckEsp
	mov	esp, ebp
	pop	ebp
	ret	0
??$_Uninitialized_move@PAPAVFuzzyTerm@@V?$allocator@PAVFuzzyTerm@@@std@@@std@@YAPAPAVFuzzyTerm@@QAPAV1@0PAPAV1@AAV?$allocator@PAVFuzzyTerm@@@0@@Z ENDP ; std::_Uninitialized_move<FuzzyTerm * *,std::allocator<FuzzyTerm *> >
_TEXT	ENDS
; Function compile flags: /Odtp /RTCsu
; File C:\Program Files (x86)\Microsoft Visual Studio\2019\Community\VC\Tools\MSVC\14.27.29110\include\xmemory
;	COMDAT ??$_Allocate_manually_vector_aligned@U_Default_allocate_traits@std@@@std@@YAPAXI@Z
_TEXT	SEGMENT
__Ptr$ = -12						; size = 4
__Ptr_container$ = -8					; size = 4
__Block_size$ = -4					; size = 4
__Bytes$ = 8						; size = 4
??$_Allocate_manually_vector_aligned@U_Default_allocate_traits@std@@@std@@YAPAXI@Z PROC ; std::_Allocate_manually_vector_aligned<std::_Default_allocate_traits>, COMDAT

; 113  : __declspec(allocator) void* _Allocate_manually_vector_aligned(const size_t _Bytes) {

	push	ebp
	mov	ebp, esp
	sub	esp, 12					; 0000000cH
	mov	DWORD PTR [ebp-12], -858993460		; ccccccccH
	mov	DWORD PTR [ebp-8], -858993460		; ccccccccH
	mov	DWORD PTR [ebp-4], -858993460		; ccccccccH

; 114  :     // allocate _Bytes manually aligned to at least _Big_allocation_alignment
; 115  :     const size_t _Block_size = _Non_user_size + _Bytes;

	mov	eax, DWORD PTR __Bytes$[ebp]
	add	eax, 39					; 00000027H
	mov	DWORD PTR __Block_size$[ebp], eax

; 116  :     if (_Block_size <= _Bytes) {

	mov	ecx, DWORD PTR __Block_size$[ebp]
	cmp	ecx, DWORD PTR __Bytes$[ebp]
	ja	SHORT $LN8@Allocate_m

; 117  :         _Throw_bad_array_new_length(); // add overflow

	call	?_Throw_bad_array_new_length@std@@YAXXZ	; std::_Throw_bad_array_new_length
$LN8@Allocate_m:

; 118  :     }
; 119  : 
; 120  :     const uintptr_t _Ptr_container = reinterpret_cast<uintptr_t>(_Traits::_Allocate(_Block_size));

	mov	edx, DWORD PTR __Block_size$[ebp]
	push	edx
	call	?_Allocate@_Default_allocate_traits@std@@SAPAXI@Z ; std::_Default_allocate_traits::_Allocate
	add	esp, 4
	mov	DWORD PTR __Ptr_container$[ebp], eax
$LN4@Allocate_m:

; 121  :     _STL_VERIFY(_Ptr_container != 0, "invalid argument"); // validate even in release since we're doing p[-1]

	cmp	DWORD PTR __Ptr_container$[ebp], 0
	je	SHORT $LN7@Allocate_m
	jmp	SHORT $LN2@Allocate_m
$LN7@Allocate_m:
	push	OFFSET $SG47527
	push	OFFSET $SG47528
	push	0
	push	121					; 00000079H
	push	OFFSET $SG47529
	push	2
	call	__CrtDbgReport
	add	esp, 24					; 00000018H
	cmp	eax, 1
	jne	SHORT $LN12@Allocate_m
	int	3
$LN12@Allocate_m:
	push	0
	push	121					; 00000079H
	push	OFFSET $SG47530
	push	OFFSET $SG47531
	push	OFFSET $SG47532
	call	__invalid_parameter
	add	esp, 20					; 00000014H
	xor	ecx, ecx
	jne	SHORT $LN7@Allocate_m
$LN2@Allocate_m:
	xor	edx, edx
	jne	SHORT $LN4@Allocate_m

; 122  :     void* const _Ptr = reinterpret_cast<void*>((_Ptr_container + _Non_user_size) & ~(_Big_allocation_alignment - 1));

	mov	eax, DWORD PTR __Ptr_container$[ebp]
	add	eax, 39					; 00000027H
	and	eax, -32				; ffffffe0H
	mov	DWORD PTR __Ptr$[ebp], eax

; 123  :     static_cast<uintptr_t*>(_Ptr)[-1] = _Ptr_container;

	mov	ecx, 4
	imul	edx, ecx, -1
	mov	eax, DWORD PTR __Ptr$[ebp]
	mov	ecx, DWORD PTR __Ptr_container$[ebp]
	mov	DWORD PTR [eax+edx], ecx

; 124  : 
; 125  : #ifdef _DEBUG
; 126  :     static_cast<uintptr_t*>(_Ptr)[-2] = _Big_allocation_sentinel;

	mov	edx, 4
	imul	eax, edx, -2
	mov	ecx, DWORD PTR __Ptr$[ebp]
	mov	DWORD PTR [ecx+eax], -84215046		; fafafafaH

; 127  : #endif // _DEBUG
; 128  :     return _Ptr;

	mov	eax, DWORD PTR __Ptr$[ebp]
$LN11@Allocate_m:

; 129  : }

	add	esp, 12					; 0000000cH
	cmp	ebp, esp
	call	__RTC_CheckEsp
	mov	esp, ebp
	pop	ebp
	ret	0
??$_Allocate_manually_vector_aligned@U_Default_allocate_traits@std@@@std@@YAPAXI@Z ENDP ; std::_Allocate_manually_vector_aligned<std::_Default_allocate_traits>
_TEXT	ENDS
; Function compile flags: /Odtp /RTCsu
; File C:\Program Files (x86)\Microsoft Visual Studio\2019\Community\VC\Tools\MSVC\14.27.29110\include\type_traits
;	COMDAT ??$forward@PAU_Container_base12@std@@@std@@YA$$QAPAU_Container_base12@0@AAPAU10@@Z
_TEXT	SEGMENT
__Arg$ = 8						; size = 4
??$forward@PAU_Container_base12@std@@@std@@YA$$QAPAU_Container_base12@0@AAPAU10@@Z PROC ; std::forward<std::_Container_base12 *>, COMDAT

; 1454 :     remove_reference_t<_Ty>& _Arg) noexcept { // forward an lvalue as either an lvalue or an rvalue

	push	ebp
	mov	ebp, esp

; 1455 :     return static_cast<_Ty&&>(_Arg);

	mov	eax, DWORD PTR __Arg$[ebp]

; 1456 : }

	pop	ebp
	ret	0
??$forward@PAU_Container_base12@std@@@std@@YA$$QAPAU_Container_base12@0@AAPAU10@@Z ENDP ; std::forward<std::_Container_base12 *>
_TEXT	ENDS
; Function compile flags: /Odtp /RTCsu
; File C:\Program Files (x86)\Microsoft Visual Studio\2019\Community\VC\Tools\MSVC\14.27.29110\include\xstddef
;	COMDAT ??$addressof@U_Container_proxy@std@@@std@@YAPAU_Container_proxy@0@AAU10@@Z
_TEXT	SEGMENT
__Val$ = 8						; size = 4
??$addressof@U_Container_proxy@std@@@std@@YAPAU_Container_proxy@0@AAU10@@Z PROC ; std::addressof<std::_Container_proxy>, COMDAT

; 274  : _NODISCARD constexpr _Ty* addressof(_Ty& _Val) noexcept {

	push	ebp
	mov	ebp, esp

; 275  :     return __builtin_addressof(_Val);

	mov	eax, DWORD PTR __Val$[ebp]

; 276  : }

	pop	ebp
	ret	0
??$addressof@U_Container_proxy@std@@@std@@YAPAU_Container_proxy@0@AAU10@@Z ENDP ; std::addressof<std::_Container_proxy>
_TEXT	ENDS
; Function compile flags: /Odtp /RTCsu
; File C:\Program Files (x86)\Microsoft Visual Studio\2019\Community\VC\Tools\MSVC\14.27.29110\include\xmemory
;	COMDAT ??$_Deallocate_plain@V?$allocator@U_Container_proxy@std@@@std@@@std@@YAXAAV?$allocator@U_Container_proxy@std@@@0@QAU_Container_proxy@0@@Z
_TEXT	SEGMENT
__$EHRec$ = -12						; size = 12
__Al$ = 8						; size = 4
__Ptr$ = 12						; size = 4
??$_Deallocate_plain@V?$allocator@U_Container_proxy@std@@@std@@@std@@YAXAAV?$allocator@U_Container_proxy@std@@@0@QAU_Container_proxy@0@@Z PROC ; std::_Deallocate_plain<std::allocator<std::_Container_proxy> >, COMDAT

; 998  : void _Deallocate_plain(_Alloc& _Al, typename _Alloc::value_type* const _Ptr) noexcept {

	push	ebp
	mov	ebp, esp
	push	-1
	push	__ehhandler$??$_Deallocate_plain@V?$allocator@U_Container_proxy@std@@@std@@@std@@YAXAAV?$allocator@U_Container_proxy@std@@@0@QAU_Container_proxy@0@@Z
	mov	eax, DWORD PTR fs:0
	push	eax
	mov	eax, DWORD PTR ___security_cookie
	xor	eax, ebp
	push	eax
	lea	eax, DWORD PTR __$EHRec$[ebp]
	mov	DWORD PTR fs:0, eax

; 999  :     // deallocate a plain pointer using an allocator
; 1000 :     using _Alloc_traits = allocator_traits<_Alloc>;
; 1001 :     if constexpr (is_same_v<_Alloc_ptr_t<_Alloc>, typename _Alloc::value_type*>) {
; 1002 :         _Alloc_traits::deallocate(_Al, _Ptr, 1);

	push	1
	mov	eax, DWORD PTR __Ptr$[ebp]
	push	eax
	mov	ecx, DWORD PTR __Al$[ebp]
	push	ecx
	call	?deallocate@?$_Default_allocator_traits@V?$allocator@U_Container_proxy@std@@@std@@@std@@SAXAAV?$allocator@U_Container_proxy@std@@@2@QAU_Container_proxy@2@I@Z ; std::_Default_allocator_traits<std::allocator<std::_Container_proxy> >::deallocate
	add	esp, 12					; 0000000cH

; 1003 :     } else {
; 1004 :         using _Ptr_traits = pointer_traits<_Alloc_ptr_t<_Alloc>>;
; 1005 :         _Alloc_traits::deallocate(_Al, _Ptr_traits::pointer_to(*_Ptr), 1);
; 1006 :     }
; 1007 : }

	mov	ecx, DWORD PTR __$EHRec$[ebp]
	mov	DWORD PTR fs:0, ecx
	pop	ecx
	add	esp, 12					; 0000000cH
	cmp	ebp, esp
	call	__RTC_CheckEsp
	mov	esp, ebp
	pop	ebp
	ret	0
	int	3
	int	3
	int	3
	int	3
	int	3
_TEXT	ENDS
;	COMDAT text$x
text$x	SEGMENT
__ehhandler$??$_Deallocate_plain@V?$allocator@U_Container_proxy@std@@@std@@@std@@YAXAAV?$allocator@U_Container_proxy@std@@@0@QAU_Container_proxy@0@@Z:
	npad	1
	npad	1
	mov	edx, DWORD PTR [esp+8]
	lea	eax, DWORD PTR [edx+12]
	mov	ecx, DWORD PTR [edx-4]
	xor	ecx, eax
	call	@__security_check_cookie@4
	mov	eax, OFFSET __ehfuncinfo$??$_Deallocate_plain@V?$allocator@U_Container_proxy@std@@@std@@@std@@YAXAAV?$allocator@U_Container_proxy@std@@@0@QAU_Container_proxy@0@@Z
	jmp	___CxxFrameHandler3
text$x	ENDS
??$_Deallocate_plain@V?$allocator@U_Container_proxy@std@@@std@@@std@@YAXAAV?$allocator@U_Container_proxy@std@@@0@QAU_Container_proxy@0@@Z ENDP ; std::_Deallocate_plain<std::allocator<std::_Container_proxy> >
; Function compile flags: /Odtp /RTCsu
; File C:\Program Files (x86)\Microsoft Visual Studio\2019\Community\VC\Tools\MSVC\14.27.29110\include\xmemory
;	COMDAT ??$_Deallocate@$07$0A@@std@@YAXPAXI@Z
_TEXT	SEGMENT
__$EHRec$ = -12						; size = 12
__Ptr$ = 8						; size = 4
__Bytes$ = 12						; size = 4
??$_Deallocate@$07$0A@@std@@YAXPAXI@Z PROC		; std::_Deallocate<8,0>, COMDAT

; 213  : void _Deallocate(void* _Ptr, size_t _Bytes) noexcept {

	push	ebp
	mov	ebp, esp
	push	-1
	push	__ehhandler$??$_Deallocate@$07$0A@@std@@YAXPAXI@Z
	mov	eax, DWORD PTR fs:0
	push	eax
	mov	eax, DWORD PTR ___security_cookie
	xor	eax, ebp
	push	eax
	lea	eax, DWORD PTR __$EHRec$[ebp]
	mov	DWORD PTR fs:0, eax

; 214  :     // deallocate storage allocated by _Allocate when !_HAS_ALIGNED_NEW || _Align <= __STDCPP_DEFAULT_NEW_ALIGNMENT__
; 215  : #if defined(_M_IX86) || defined(_M_X64)
; 216  :     if (_Bytes >= _Big_allocation_threshold) { // boost the alignment of big allocations to help autovectorization

	cmp	DWORD PTR __Bytes$[ebp], 4096		; 00001000H
	jb	SHORT $LN2@Deallocate

; 217  :         _Adjust_manually_vector_aligned(_Ptr, _Bytes);

	lea	eax, DWORD PTR __Bytes$[ebp]
	push	eax
	lea	ecx, DWORD PTR __Ptr$[ebp]
	push	ecx
	call	?_Adjust_manually_vector_aligned@std@@YAXAAPAXAAI@Z ; std::_Adjust_manually_vector_aligned
	add	esp, 8
$LN2@Deallocate:

; 218  :     }
; 219  : #endif // defined(_M_IX86) || defined(_M_X64)
; 220  : 
; 221  :     ::operator delete(_Ptr, _Bytes);

	mov	edx, DWORD PTR __Bytes$[ebp]
	push	edx
	mov	eax, DWORD PTR __Ptr$[ebp]
	push	eax
	call	??3@YAXPAXI@Z				; operator delete
	add	esp, 8

; 222  : }

	mov	ecx, DWORD PTR __$EHRec$[ebp]
	mov	DWORD PTR fs:0, ecx
	pop	ecx
	add	esp, 12					; 0000000cH
	cmp	ebp, esp
	call	__RTC_CheckEsp
	mov	esp, ebp
	pop	ebp
	ret	0
	int	3
	int	3
	int	3
	int	3
	int	3
_TEXT	ENDS
;	COMDAT text$x
text$x	SEGMENT
__ehhandler$??$_Deallocate@$07$0A@@std@@YAXPAXI@Z:
	npad	1
	npad	1
	mov	edx, DWORD PTR [esp+8]
	lea	eax, DWORD PTR [edx+12]
	mov	ecx, DWORD PTR [edx-4]
	xor	ecx, eax
	call	@__security_check_cookie@4
	mov	eax, OFFSET __ehfuncinfo$??$_Deallocate@$07$0A@@std@@YAXPAXI@Z
	jmp	___CxxFrameHandler3
text$x	ENDS
??$_Deallocate@$07$0A@@std@@YAXPAXI@Z ENDP		; std::_Deallocate<8,0>
; Function compile flags: /Odtp /RTCsu
; File C:\Program Files (x86)\Microsoft Visual Studio\2019\Community\VC\Tools\MSVC\14.27.29110\include\xmemory
;	COMDAT ??$_Destroy_range@V?$allocator@PAVFuzzyTerm@@@std@@@std@@YAXPAPAVFuzzyTerm@@QAPAV1@AAV?$allocator@PAVFuzzyTerm@@@0@@Z
_TEXT	SEGMENT
__First$ = 8						; size = 4
__Last$ = 12						; size = 4
__Al$ = 16						; size = 4
??$_Destroy_range@V?$allocator@PAVFuzzyTerm@@@std@@@std@@YAXPAPAVFuzzyTerm@@QAPAV1@AAV?$allocator@PAVFuzzyTerm@@@0@@Z PROC ; std::_Destroy_range<std::allocator<FuzzyTerm *> >, COMDAT

; 955  : void _Destroy_range(_Alloc_ptr_t<_Alloc> _First, const _Alloc_ptr_t<_Alloc> _Last, _Alloc& _Al) noexcept {

	push	ebp
	mov	ebp, esp

; 956  :     // note that this is an optimization for debug mode codegen; in release mode the BE removes all of this
; 957  :     using _Ty = typename _Alloc::value_type;
; 958  :     if _CONSTEXPR_IF (!conjunction_v<is_trivially_destructible<_Ty>, _Uses_default_destroy<_Alloc, _Ty*>>) {
; 959  :         for (; _First != _Last; ++_First) {
; 960  :             allocator_traits<_Alloc>::destroy(_Al, _Unfancy(_First));
; 961  :         }
; 962  :     }
; 963  : }

	pop	ebp
	ret	0
??$_Destroy_range@V?$allocator@PAVFuzzyTerm@@@std@@@std@@YAXPAPAVFuzzyTerm@@QAPAV1@AAV?$allocator@PAVFuzzyTerm@@@0@@Z ENDP ; std::_Destroy_range<std::allocator<FuzzyTerm *> >
_TEXT	ENDS
; Function compile flags: /Odtp /RTCsu
; File C:\Program Files (x86)\Microsoft Visual Studio\2019\Community\VC\Tools\MSVC\14.27.29110\include\xmemory
;	COMDAT ??$_Allocate@$07U_Default_allocate_traits@std@@$0A@@std@@YAPAXI@Z
_TEXT	SEGMENT
__Bytes$ = 8						; size = 4
??$_Allocate@$07U_Default_allocate_traits@std@@$0A@@std@@YAPAXI@Z PROC ; std::_Allocate<8,std::_Default_allocate_traits,0>, COMDAT

; 197  : __declspec(allocator) void* _Allocate(const size_t _Bytes) {

	push	ebp
	mov	ebp, esp

; 198  :     // allocate _Bytes when !_HAS_ALIGNED_NEW || _Align <= __STDCPP_DEFAULT_NEW_ALIGNMENT__
; 199  : #if defined(_M_IX86) || defined(_M_X64)
; 200  :     if (_Bytes >= _Big_allocation_threshold) { // boost the alignment of big allocations to help autovectorization

	cmp	DWORD PTR __Bytes$[ebp], 4096		; 00001000H
	jb	SHORT $LN2@Allocate

; 201  :         return _Allocate_manually_vector_aligned<_Traits>(_Bytes);

	mov	eax, DWORD PTR __Bytes$[ebp]
	push	eax
	call	??$_Allocate_manually_vector_aligned@U_Default_allocate_traits@std@@@std@@YAPAXI@Z ; std::_Allocate_manually_vector_aligned<std::_Default_allocate_traits>
	add	esp, 4
	jmp	SHORT $LN1@Allocate
$LN2@Allocate:

; 202  :     }
; 203  : #endif // defined(_M_IX86) || defined(_M_X64)
; 204  : 
; 205  :     if (_Bytes != 0) {

	cmp	DWORD PTR __Bytes$[ebp], 0
	je	SHORT $LN3@Allocate

; 206  :         return _Traits::_Allocate(_Bytes);

	mov	ecx, DWORD PTR __Bytes$[ebp]
	push	ecx
	call	?_Allocate@_Default_allocate_traits@std@@SAPAXI@Z ; std::_Default_allocate_traits::_Allocate
	add	esp, 4
	jmp	SHORT $LN1@Allocate
$LN3@Allocate:

; 207  :     }
; 208  : 
; 209  :     return nullptr;

	xor	eax, eax
$LN1@Allocate:

; 210  : }

	cmp	ebp, esp
	call	__RTC_CheckEsp
	pop	ebp
	ret	0
??$_Allocate@$07U_Default_allocate_traits@std@@$0A@@std@@YAPAXI@Z ENDP ; std::_Allocate<8,std::_Default_allocate_traits,0>
_TEXT	ENDS
; Function compile flags: /Odtp /RTCsu
; File C:\Program Files (x86)\Microsoft Visual Studio\2019\Community\VC\Tools\MSVC\14.27.29110\include\xmemory
;	COMDAT ??$_Get_size_of_n@$07@std@@YAII@Z
_TEXT	SEGMENT
__Max_possible$1 = -8					; size = 4
__Overflow_is_possible$ = -1				; size = 1
__Count$ = 8						; size = 4
??$_Get_size_of_n@$07@std@@YAII@Z PROC			; std::_Get_size_of_n<8>, COMDAT

; 55   : _NODISCARD constexpr size_t _Get_size_of_n(const size_t _Count) {

	push	ebp
	mov	ebp, esp
	sub	esp, 8
	mov	DWORD PTR [ebp-8], -858993460		; ccccccccH
	mov	DWORD PTR [ebp-4], -858993460		; ccccccccH

; 56   :     constexpr bool _Overflow_is_possible = _Ty_size > 1;

	mov	BYTE PTR __Overflow_is_possible$[ebp], 1

; 57   : 
; 58   :     if _CONSTEXPR_IF (_Overflow_is_possible) {
; 59   :         constexpr size_t _Max_possible = static_cast<size_t>(-1) / _Ty_size;

	mov	DWORD PTR __Max_possible$1[ebp], 536870911 ; 1fffffffH

; 60   :         if (_Count > _Max_possible) {

	cmp	DWORD PTR __Count$[ebp], 536870911	; 1fffffffH
	jbe	SHORT $LN2@Get_size_o

; 61   :             _Throw_bad_array_new_length(); // multiply overflow

	call	?_Throw_bad_array_new_length@std@@YAXXZ	; std::_Throw_bad_array_new_length
$LN2@Get_size_o:

; 62   :         }
; 63   :     }
; 64   : 
; 65   :     return _Count * _Ty_size;

	mov	eax, DWORD PTR __Count$[ebp]
	shl	eax, 3
$LN3@Get_size_o:

; 66   : }

	add	esp, 8
	cmp	ebp, esp
	call	__RTC_CheckEsp
	mov	esp, ebp
	pop	ebp
	ret	0
??$_Get_size_of_n@$07@std@@YAII@Z ENDP			; std::_Get_size_of_n<8>
_TEXT	ENDS
; Function compile flags: /Odtp /RTCsu
; File C:\Program Files (x86)\Microsoft Visual Studio\2019\Community\VC\Tools\MSVC\14.27.29110\include\utility
;	COMDAT ??$min@I@std@@YAABIABI0@Z
_TEXT	SEGMENT
tv65 = -8						; size = 4
$T1 = -4						; size = 4
__Left$ = 8						; size = 4
__Right$ = 12						; size = 4
??$min@I@std@@YAABIABI0@Z PROC				; std::min<unsigned int>, COMDAT

; 67   :     const _Ty& _Left, const _Ty& _Right) noexcept(noexcept(_Right < _Left)) /* strengthened */ {

	push	ebp
	mov	ebp, esp
	sub	esp, 8
	mov	DWORD PTR [ebp-8], -858993460		; ccccccccH
	mov	DWORD PTR [ebp-4], -858993460		; ccccccccH

; 68   :     // return smaller of _Left and _Right
; 69   :     return _Right < _Left ? _Right : _Left;

	mov	eax, DWORD PTR __Right$[ebp]
	mov	ecx, DWORD PTR __Left$[ebp]
	mov	edx, DWORD PTR [eax]
	cmp	edx, DWORD PTR [ecx]
	jae	SHORT $LN3@min
	mov	eax, DWORD PTR __Right$[ebp]
	mov	DWORD PTR tv65[ebp], eax
	jmp	SHORT $LN4@min
$LN3@min:
	mov	ecx, DWORD PTR __Left$[ebp]
	mov	DWORD PTR tv65[ebp], ecx
$LN4@min:
	mov	edx, DWORD PTR tv65[ebp]
	mov	DWORD PTR $T1[ebp], edx
	mov	eax, DWORD PTR $T1[ebp]

; 70   : }

	mov	esp, ebp
	pop	ebp
	ret	0
??$min@I@std@@YAABIABI0@Z ENDP				; std::min<unsigned int>
_TEXT	ENDS
; Function compile flags: /Odtp /RTCsu
; File C:\Program Files (x86)\Microsoft Visual Studio\2019\Community\VC\Tools\MSVC\14.27.29110\include\xmemory
;	COMDAT ??$_Construct_in_place@U_Container_proxy@std@@PAU_Container_base12@2@@std@@YAXAAU_Container_proxy@0@$$QAPAU_Container_base12@0@@Z
_TEXT	SEGMENT
$T1 = -4						; size = 4
__Obj$ = 8						; size = 4
_<_Args_0>$ = 12					; size = 4
??$_Construct_in_place@U_Container_proxy@std@@PAU_Container_base12@2@@std@@YAXAAU_Container_proxy@0@$$QAPAU_Container_base12@0@@Z PROC ; std::_Construct_in_place<std::_Container_proxy,std::_Container_base12 *>, COMDAT

; 228  : void _Construct_in_place(_Ty& _Obj, _Types&&... _Args) noexcept(is_nothrow_constructible_v<_Ty, _Types...>) {

	push	ebp
	mov	ebp, esp
	push	ecx
	mov	DWORD PTR [ebp-4], -858993460		; ccccccccH

; 229  :     ::new (const_cast<void*>(static_cast<const volatile void*>(_STD addressof(_Obj))))

	mov	eax, DWORD PTR __Obj$[ebp]
	push	eax
	call	??$addressof@U_Container_proxy@std@@@std@@YAPAU_Container_proxy@0@AAU10@@Z ; std::addressof<std::_Container_proxy>
	add	esp, 4
	push	eax
	push	8
	call	??2@YAPAXIPAX@Z				; operator new
	add	esp, 8
	mov	DWORD PTR $T1[ebp], eax
	mov	ecx, DWORD PTR _<_Args_0>$[ebp]
	push	ecx
	call	??$forward@PAU_Container_base12@std@@@std@@YA$$QAPAU_Container_base12@0@AAPAU10@@Z ; std::forward<std::_Container_base12 *>
	add	esp, 4
	mov	edx, DWORD PTR [eax]
	push	edx
	mov	ecx, DWORD PTR $T1[ebp]
	call	??0_Container_proxy@std@@QAE@PAU_Container_base12@1@@Z ; std::_Container_proxy::_Container_proxy

; 230  :         _Ty(_STD forward<_Types>(_Args)...);
; 231  : }

	add	esp, 4
	cmp	ebp, esp
	call	__RTC_CheckEsp
	mov	esp, ebp
	pop	ebp
	ret	0
??$_Construct_in_place@U_Container_proxy@std@@PAU_Container_base12@2@@std@@YAXAAU_Container_proxy@0@$$QAPAU_Container_base12@0@@Z ENDP ; std::_Construct_in_place<std::_Container_proxy,std::_Container_base12 *>
_TEXT	ENDS
; Function compile flags: /Odtp /RTCsu
; File C:\Program Files (x86)\Microsoft Visual Studio\2019\Community\VC\Tools\MSVC\14.27.29110\include\xstddef
;	COMDAT ??$_Unfancy@U_Container_proxy@std@@@std@@YAPAU_Container_proxy@0@PAU10@@Z
_TEXT	SEGMENT
__Ptr$ = 8						; size = 4
??$_Unfancy@U_Container_proxy@std@@@std@@YAPAU_Container_proxy@0@PAU10@@Z PROC ; std::_Unfancy<std::_Container_proxy>, COMDAT

; 288  : _NODISCARD constexpr _Ty* _Unfancy(_Ty* _Ptr) noexcept { // do nothing for plain pointers

	push	ebp
	mov	ebp, esp

; 289  :     return _Ptr;

	mov	eax, DWORD PTR __Ptr$[ebp]

; 290  : }

	pop	ebp
	ret	0
??$_Unfancy@U_Container_proxy@std@@@std@@YAPAU_Container_proxy@0@PAU10@@Z ENDP ; std::_Unfancy<std::_Container_proxy>
_TEXT	ENDS
; Function compile flags: /Odtp /RTCsu
; File C:\Program Files (x86)\Microsoft Visual Studio\2019\Community\VC\Tools\MSVC\14.27.29110\include\xmemory
;	COMDAT ??$_Alloc_proxy@V?$allocator@U_Container_proxy@std@@@std@@@_Container_base12@std@@QAEX$$QAV?$allocator@U_Container_proxy@std@@@1@@Z
_TEXT	SEGMENT
$T1 = -12						; size = 4
__New_proxy$ = -8					; size = 4
_this$ = -4						; size = 4
__Al$ = 8						; size = 4
??$_Alloc_proxy@V?$allocator@U_Container_proxy@std@@@std@@@_Container_base12@std@@QAEX$$QAV?$allocator@U_Container_proxy@std@@@1@@Z PROC ; std::_Container_base12::_Alloc_proxy<std::allocator<std::_Container_proxy> >, COMDAT
; _this$ = ecx

; 1101 :     void _Alloc_proxy(_Alloc&& _Al) {

	push	ebp
	mov	ebp, esp
	sub	esp, 12					; 0000000cH
	mov	DWORD PTR [ebp-12], -858993460		; ccccccccH
	mov	DWORD PTR [ebp-8], -858993460		; ccccccccH
	mov	DWORD PTR [ebp-4], -858993460		; ccccccccH
	mov	DWORD PTR _this$[ebp], ecx

; 1102 :         _Container_proxy* const _New_proxy = _Unfancy(_Al.allocate(1));

	push	1
	mov	ecx, DWORD PTR __Al$[ebp]
	call	?allocate@?$allocator@U_Container_proxy@std@@@std@@QAEPAU_Container_proxy@2@I@Z ; std::allocator<std::_Container_proxy>::allocate
	push	eax
	call	??$_Unfancy@U_Container_proxy@std@@@std@@YAPAU_Container_proxy@0@PAU10@@Z ; std::_Unfancy<std::_Container_proxy>
	add	esp, 4
	mov	DWORD PTR __New_proxy$[ebp], eax

; 1103 :         _Construct_in_place(*_New_proxy, this);

	mov	eax, DWORD PTR _this$[ebp]
	mov	DWORD PTR $T1[ebp], eax
	lea	ecx, DWORD PTR $T1[ebp]
	push	ecx
	mov	edx, DWORD PTR __New_proxy$[ebp]
	push	edx
	call	??$_Construct_in_place@U_Container_proxy@std@@PAU_Container_base12@2@@std@@YAXAAU_Container_proxy@0@$$QAPAU_Container_base12@0@@Z ; std::_Construct_in_place<std::_Container_proxy,std::_Container_base12 *>
	add	esp, 8

; 1104 :         _Myproxy            = _New_proxy;

	mov	eax, DWORD PTR _this$[ebp]
	mov	ecx, DWORD PTR __New_proxy$[ebp]
	mov	DWORD PTR [eax], ecx

; 1105 :         _New_proxy->_Mycont = this;

	mov	edx, DWORD PTR __New_proxy$[ebp]
	mov	eax, DWORD PTR _this$[ebp]
	mov	DWORD PTR [edx], eax

; 1106 :     }

	add	esp, 12					; 0000000cH
	cmp	ebp, esp
	call	__RTC_CheckEsp
	mov	esp, ebp
	pop	ebp
	ret	4
??$_Alloc_proxy@V?$allocator@U_Container_proxy@std@@@std@@@_Container_base12@std@@QAEX$$QAV?$allocator@U_Container_proxy@std@@@1@@Z ENDP ; std::_Container_base12::_Alloc_proxy<std::allocator<std::_Container_proxy> >
_TEXT	ENDS
; Function compile flags: /Odtp /RTCsu
; File C:\Program Files (x86)\Microsoft Visual Studio\2019\Community\VC\Tools\MSVC\14.27.29110\include\xmemory
;	COMDAT ??$?0$$V@?$_Compressed_pair@V?$allocator@PAVFuzzyTerm@@@std@@V?$_Vector_val@U?$_Simple_types@PAVFuzzyTerm@@@std@@@2@$00@std@@QAE@U_Zero_then_variadic_args_t@1@@Z
_TEXT	SEGMENT
_this$ = -4						; size = 4
___formal$ = 8						; size = 1
??$?0$$V@?$_Compressed_pair@V?$allocator@PAVFuzzyTerm@@@std@@V?$_Vector_val@U?$_Simple_types@PAVFuzzyTerm@@@std@@@2@$00@std@@QAE@U_Zero_then_variadic_args_t@1@@Z PROC ; std::_Compressed_pair<std::allocator<FuzzyTerm *>,std::_Vector_val<std::_Simple_types<FuzzyTerm *> >,1>::_Compressed_pair<std::allocator<FuzzyTerm *>,std::_Vector_val<std::_Simple_types<FuzzyTerm *> >,1><>, COMDAT
; _this$ = ecx

; 1336 :         : _Ty1(), _Myval2(_STD forward<_Other2>(_Val2)...) {}

	push	ebp
	mov	ebp, esp
	push	ecx
	mov	DWORD PTR [ebp-4], -858993460		; ccccccccH
	mov	DWORD PTR _this$[ebp], ecx
	mov	ecx, DWORD PTR _this$[ebp]
	call	??0?$allocator@PAVFuzzyTerm@@@std@@QAE@XZ ; std::allocator<FuzzyTerm *>::allocator<FuzzyTerm *>
	mov	ecx, DWORD PTR _this$[ebp]
	call	??0?$_Vector_val@U?$_Simple_types@PAVFuzzyTerm@@@std@@@std@@QAE@XZ ; std::_Vector_val<std::_Simple_types<FuzzyTerm *> >::_Vector_val<std::_Simple_types<FuzzyTerm *> >
	mov	eax, DWORD PTR _this$[ebp]
	add	esp, 4
	cmp	ebp, esp
	call	__RTC_CheckEsp
	mov	esp, ebp
	pop	ebp
	ret	4
??$?0$$V@?$_Compressed_pair@V?$allocator@PAVFuzzyTerm@@@std@@V?$_Vector_val@U?$_Simple_types@PAVFuzzyTerm@@@std@@@2@$00@std@@QAE@U_Zero_then_variadic_args_t@1@@Z ENDP ; std::_Compressed_pair<std::allocator<FuzzyTerm *>,std::_Vector_val<std::_Simple_types<FuzzyTerm *> >,1>::_Compressed_pair<std::allocator<FuzzyTerm *>,std::_Vector_val<std::_Simple_types<FuzzyTerm *> >,1><>
_TEXT	ENDS
; Function compile flags: /Odtp /RTCsu
; File C:\Program Files (x86)\Microsoft Visual Studio\2019\Community\VC\Tools\MSVC\14.27.29110\include\xmemory
;	COMDAT ??$_Delete_plain_internal@V?$allocator@U_Container_proxy@std@@@std@@@std@@YAXAAV?$allocator@U_Container_proxy@std@@@0@QAU_Container_proxy@0@@Z
_TEXT	SEGMENT
__Al$ = 8						; size = 4
__Ptr$ = 12						; size = 4
??$_Delete_plain_internal@V?$allocator@U_Container_proxy@std@@@std@@@std@@YAXAAV?$allocator@U_Container_proxy@std@@@0@QAU_Container_proxy@0@@Z PROC ; std::_Delete_plain_internal<std::allocator<std::_Container_proxy> >, COMDAT

; 1026 : void _Delete_plain_internal(_Alloc& _Al, typename _Alloc::value_type* const _Ptr) noexcept {

	push	ebp
	mov	ebp, esp

; 1027 :     // destroy *_Ptr in place, then deallocate _Ptr using _Al; used for internal container types the user didn't name
; 1028 :     using _Ty = typename _Alloc::value_type;
; 1029 :     _Ptr->~_Ty();
; 1030 :     _Deallocate_plain(_Al, _Ptr);

	mov	eax, DWORD PTR __Ptr$[ebp]
	push	eax
	mov	ecx, DWORD PTR __Al$[ebp]
	push	ecx
	call	??$_Deallocate_plain@V?$allocator@U_Container_proxy@std@@@std@@@std@@YAXAAV?$allocator@U_Container_proxy@std@@@0@QAU_Container_proxy@0@@Z ; std::_Deallocate_plain<std::allocator<std::_Container_proxy> >
	add	esp, 8

; 1031 : }

	cmp	ebp, esp
	call	__RTC_CheckEsp
	pop	ebp
	ret	0
??$_Delete_plain_internal@V?$allocator@U_Container_proxy@std@@@std@@@std@@YAXAAV?$allocator@U_Container_proxy@std@@@0@QAU_Container_proxy@0@@Z ENDP ; std::_Delete_plain_internal<std::allocator<std::_Container_proxy> >
_TEXT	ENDS
; Function compile flags: /Odtp /RTCsu
; File C:\Program Files (x86)\Microsoft Visual Studio\2019\Community\VC\Tools\MSVC\14.27.29110\include\utility
;	COMDAT ??$exchange@PAU_Container_proxy@std@@$$T@std@@YAPAU_Container_proxy@0@AAPAU10@$$QA$$T@Z
_TEXT	SEGMENT
__Old_val$ = -4						; size = 4
__Val$ = 8						; size = 4
__New_val$ = 12						; size = 4
??$exchange@PAU_Container_proxy@std@@$$T@std@@YAPAU_Container_proxy@0@AAPAU10@$$QA$$T@Z PROC ; std::exchange<std::_Container_proxy *,std::nullptr_t>, COMDAT

; 597  :     conjunction_v<is_nothrow_move_constructible<_Ty>, is_nothrow_assignable<_Ty&, _Other>>) /* strengthened */ {

	push	ebp
	mov	ebp, esp
	push	ecx
	mov	DWORD PTR [ebp-4], -858993460		; ccccccccH

; 598  :     // assign _New_val to _Val, return previous _Val
; 599  :     _Ty _Old_val = static_cast<_Ty&&>(_Val);

	mov	eax, DWORD PTR __Val$[ebp]
	mov	ecx, DWORD PTR [eax]
	mov	DWORD PTR __Old_val$[ebp], ecx

; 600  :     _Val         = static_cast<_Other&&>(_New_val);

	mov	edx, DWORD PTR __Val$[ebp]
	mov	eax, DWORD PTR __New_val$[ebp]
	mov	ecx, DWORD PTR [eax]
	mov	DWORD PTR [edx], ecx

; 601  :     return _Old_val;

	mov	eax, DWORD PTR __Old_val$[ebp]

; 602  : }

	mov	esp, ebp
	pop	ebp
	ret	0
??$exchange@PAU_Container_proxy@std@@$$T@std@@YAPAU_Container_proxy@0@AAPAU10@$$QA$$T@Z ENDP ; std::exchange<std::_Container_proxy *,std::nullptr_t>
_TEXT	ENDS
; Function compile flags: /Odtp /RTCsu
; File C:\Program Files (x86)\Microsoft Visual Studio\2019\Community\VC\Tools\MSVC\14.27.29110\include\xmemory
;	COMDAT ??$?0PAVFuzzyTerm@@@?$allocator@U_Container_proxy@std@@@std@@QAE@ABV?$allocator@PAVFuzzyTerm@@@1@@Z
_TEXT	SEGMENT
_this$ = -4						; size = 4
___formal$ = 8						; size = 4
??$?0PAVFuzzyTerm@@@?$allocator@U_Container_proxy@std@@@std@@QAE@ABV?$allocator@PAVFuzzyTerm@@@1@@Z PROC ; std::allocator<std::_Container_proxy>::allocator<std::_Container_proxy><FuzzyTerm *>, COMDAT
; _this$ = ecx

; 799  :     constexpr allocator(const allocator<_Other>&) noexcept {}

	push	ebp
	mov	ebp, esp
	push	ecx
	mov	DWORD PTR [ebp-4], -858993460		; ccccccccH
	mov	DWORD PTR _this$[ebp], ecx
	mov	eax, DWORD PTR _this$[ebp]
	mov	esp, ebp
	pop	ebp
	ret	4
??$?0PAVFuzzyTerm@@@?$allocator@U_Container_proxy@std@@@std@@QAE@ABV?$allocator@PAVFuzzyTerm@@@1@@Z ENDP ; std::allocator<std::_Container_proxy>::allocator<std::_Container_proxy><FuzzyTerm *>
_TEXT	ENDS
; Function compile flags: /Odtp /RTCsu
; File C:\Program Files (x86)\Microsoft Visual Studio\2019\Community\VC\Tools\MSVC\14.27.29110\include\xmemory
;	COMDAT ?allocate@?$allocator@U_Container_proxy@std@@@std@@QAEPAU_Container_proxy@2@I@Z
_TEXT	SEGMENT
_this$ = -4						; size = 4
__Count$ = 8						; size = 4
?allocate@?$allocator@U_Container_proxy@std@@@std@@QAEPAU_Container_proxy@2@I@Z PROC ; std::allocator<std::_Container_proxy>::allocate, COMDAT
; _this$ = ecx

; 806  :     _NODISCARD __declspec(allocator) _Ty* allocate(_CRT_GUARDOVERFLOW const size_t _Count) {

	push	ebp
	mov	ebp, esp
	push	ecx
	mov	DWORD PTR [ebp-4], -858993460		; ccccccccH
	mov	DWORD PTR _this$[ebp], ecx

; 807  :         return static_cast<_Ty*>(_Allocate<_New_alignof<_Ty>>(_Get_size_of_n<sizeof(_Ty)>(_Count)));

	mov	eax, DWORD PTR __Count$[ebp]
	push	eax
	call	??$_Get_size_of_n@$07@std@@YAII@Z	; std::_Get_size_of_n<8>
	add	esp, 4
	push	eax
	call	??$_Allocate@$07U_Default_allocate_traits@std@@$0A@@std@@YAPAXI@Z ; std::_Allocate<8,std::_Default_allocate_traits,0>
	add	esp, 4

; 808  :     }

	add	esp, 4
	cmp	ebp, esp
	call	__RTC_CheckEsp
	mov	esp, ebp
	pop	ebp
	ret	4
?allocate@?$allocator@U_Container_proxy@std@@@std@@QAEPAU_Container_proxy@2@I@Z ENDP ; std::allocator<std::_Container_proxy>::allocate
_TEXT	ENDS
; Function compile flags: /Odtp /RTCsu
; File C:\Program Files (x86)\Microsoft Visual Studio\2019\Community\VC\Tools\MSVC\14.27.29110\include\vector
;	COMDAT ??$_Emplace_reallocate@PAVFuzzyTerm@@@?$vector@PAVFuzzyTerm@@V?$allocator@PAVFuzzyTerm@@@std@@@std@@QAEPAPAVFuzzyTerm@@QAPAV2@$$QAPAV2@@Z
_TEXT	SEGMENT
__Constructed_first$ = -64				; size = 4
__Constructed_last$ = -60				; size = 4
__Newvec$ = -56						; size = 4
__Newcapacity$ = -52					; size = 4
__Newsize$ = -48					; size = 4
__Oldsize$ = -44					; size = 4
__Whereoff$ = -40					; size = 4
__Mylast$ = -36						; size = 4
__Myfirst$ = -32					; size = 4
__My_data$ = -28					; size = 4
__Al$ = -24						; size = 4
_this$ = -20						; size = 4
__$EHRec$ = -16						; size = 16
__Whereptr$ = 8						; size = 4
_<_Val_0>$ = 12						; size = 4
??$_Emplace_reallocate@PAVFuzzyTerm@@@?$vector@PAVFuzzyTerm@@V?$allocator@PAVFuzzyTerm@@@std@@@std@@QAEPAPAVFuzzyTerm@@QAPAV2@$$QAPAV2@@Z PROC ; std::vector<FuzzyTerm *,std::allocator<FuzzyTerm *> >::_Emplace_reallocate<FuzzyTerm *>, COMDAT
; _this$ = ecx

; 725  :     pointer _Emplace_reallocate(const pointer _Whereptr, _Valty&&... _Val) {

	push	ebp
	mov	ebp, esp
	push	-1
	push	__ehhandler$??$_Emplace_reallocate@PAVFuzzyTerm@@@?$vector@PAVFuzzyTerm@@V?$allocator@PAVFuzzyTerm@@@std@@@std@@QAEPAPAVFuzzyTerm@@QAPAV2@$$QAPAV2@@Z
	mov	eax, DWORD PTR fs:0
	push	eax
	push	ecx
	sub	esp, 48					; 00000030H
	push	ebx
	push	esi
	push	edi
	push	ecx
	lea	edi, DWORD PTR [ebp-64]
	mov	ecx, 12					; 0000000cH
	mov	eax, -858993460				; ccccccccH
	rep stosd
	pop	ecx
	mov	eax, DWORD PTR ___security_cookie
	xor	eax, ebp
	push	eax
	lea	eax, DWORD PTR __$EHRec$[ebp+4]
	mov	DWORD PTR fs:0, eax
	mov	DWORD PTR __$EHRec$[ebp], esp
	mov	DWORD PTR _this$[ebp], ecx

; 726  :         // reallocate and insert by perfectly forwarding _Val at _Whereptr
; 727  :         _Alty& _Al        = _Getal();

	mov	ecx, DWORD PTR _this$[ebp]
	call	?_Getal@?$vector@PAVFuzzyTerm@@V?$allocator@PAVFuzzyTerm@@@std@@@std@@AAEAAV?$allocator@PAVFuzzyTerm@@@2@XZ ; std::vector<FuzzyTerm *,std::allocator<FuzzyTerm *> >::_Getal
	mov	DWORD PTR __Al$[ebp], eax

; 728  :         auto& _My_data    = _Mypair._Myval2;

	mov	eax, DWORD PTR _this$[ebp]
	mov	DWORD PTR __My_data$[ebp], eax

; 729  :         pointer& _Myfirst = _My_data._Myfirst;

	mov	ecx, DWORD PTR __My_data$[ebp]
	add	ecx, 4
	mov	DWORD PTR __Myfirst$[ebp], ecx

; 730  :         pointer& _Mylast  = _My_data._Mylast;

	mov	edx, DWORD PTR __My_data$[ebp]
	add	edx, 8
	mov	DWORD PTR __Mylast$[ebp], edx

; 731  : 
; 732  :         _STL_INTERNAL_CHECK(_Mylast == _My_data._Myend); // check that we have no unused capacity
; 733  : 
; 734  :         const auto _Whereoff = static_cast<size_type>(_Whereptr - _Myfirst);

	mov	eax, DWORD PTR __Myfirst$[ebp]
	mov	ecx, DWORD PTR __Whereptr$[ebp]
	sub	ecx, DWORD PTR [eax]
	sar	ecx, 2
	mov	DWORD PTR __Whereoff$[ebp], ecx

; 735  :         const auto _Oldsize  = static_cast<size_type>(_Mylast - _Myfirst);

	mov	edx, DWORD PTR __Mylast$[ebp]
	mov	eax, DWORD PTR __Myfirst$[ebp]
	mov	ecx, DWORD PTR [edx]
	sub	ecx, DWORD PTR [eax]
	sar	ecx, 2
	mov	DWORD PTR __Oldsize$[ebp], ecx

; 736  : 
; 737  :         if (_Oldsize == max_size()) {

	mov	ecx, DWORD PTR _this$[ebp]
	call	?max_size@?$vector@PAVFuzzyTerm@@V?$allocator@PAVFuzzyTerm@@@std@@@std@@QBEIXZ ; std::vector<FuzzyTerm *,std::allocator<FuzzyTerm *> >::max_size
	cmp	DWORD PTR __Oldsize$[ebp], eax
	jne	SHORT $LN2@Emplace_re

; 738  :             _Xlength();

	call	?_Xlength@?$vector@PAVFuzzyTerm@@V?$allocator@PAVFuzzyTerm@@@std@@@std@@CAXXZ ; std::vector<FuzzyTerm *,std::allocator<FuzzyTerm *> >::_Xlength
$LN2@Emplace_re:

; 739  :         }
; 740  : 
; 741  :         const size_type _Newsize     = _Oldsize + 1;

	mov	edx, DWORD PTR __Oldsize$[ebp]
	add	edx, 1
	mov	DWORD PTR __Newsize$[ebp], edx

; 742  :         const size_type _Newcapacity = _Calculate_growth(_Newsize);

	mov	eax, DWORD PTR __Newsize$[ebp]
	push	eax
	mov	ecx, DWORD PTR _this$[ebp]
	call	?_Calculate_growth@?$vector@PAVFuzzyTerm@@V?$allocator@PAVFuzzyTerm@@@std@@@std@@ABEII@Z ; std::vector<FuzzyTerm *,std::allocator<FuzzyTerm *> >::_Calculate_growth
	mov	DWORD PTR __Newcapacity$[ebp], eax

; 743  : 
; 744  :         const pointer _Newvec           = _Al.allocate(_Newcapacity);

	mov	ecx, DWORD PTR __Newcapacity$[ebp]
	push	ecx
	mov	ecx, DWORD PTR __Al$[ebp]
	call	?allocate@?$allocator@PAVFuzzyTerm@@@std@@QAEPAPAVFuzzyTerm@@I@Z ; std::allocator<FuzzyTerm *>::allocate
	mov	DWORD PTR __Newvec$[ebp], eax

; 745  :         const pointer _Constructed_last = _Newvec + _Whereoff + 1;

	mov	edx, DWORD PTR __Whereoff$[ebp]
	mov	eax, DWORD PTR __Newvec$[ebp]
	lea	ecx, DWORD PTR [eax+edx*4+4]
	mov	DWORD PTR __Constructed_last$[ebp], ecx

; 746  :         pointer _Constructed_first      = _Constructed_last;

	mov	edx, DWORD PTR __Constructed_last$[ebp]
	mov	DWORD PTR __Constructed_first$[ebp], edx

; 747  : 
; 748  :         _TRY_BEGIN

	mov	DWORD PTR __$EHRec$[ebp+12], 0

; 749  :         _Alty_traits::construct(_Al, _Unfancy(_Newvec + _Whereoff), _STD forward<_Valty>(_Val)...);

	mov	eax, DWORD PTR _<_Val_0>$[ebp]
	push	eax
	call	??$forward@PAVFuzzyTerm@@@std@@YA$$QAPAVFuzzyTerm@@AAPAV1@@Z ; std::forward<FuzzyTerm *>
	add	esp, 4
	push	eax
	mov	ecx, DWORD PTR __Whereoff$[ebp]
	mov	edx, DWORD PTR __Newvec$[ebp]
	lea	eax, DWORD PTR [edx+ecx*4]
	push	eax
	call	??$_Unfancy@PAVFuzzyTerm@@@std@@YAPAPAVFuzzyTerm@@PAPAV1@@Z ; std::_Unfancy<FuzzyTerm *>
	add	esp, 4
	push	eax
	mov	ecx, DWORD PTR __Al$[ebp]
	push	ecx
	call	??$construct@PAVFuzzyTerm@@PAV1@@?$_Default_allocator_traits@V?$allocator@PAVFuzzyTerm@@@std@@@std@@SAXAAV?$allocator@PAVFuzzyTerm@@@1@QAPAVFuzzyTerm@@$$QAPAV3@@Z ; std::_Default_allocator_traits<std::allocator<FuzzyTerm *> >::construct<FuzzyTerm *,FuzzyTerm *>
	add	esp, 12					; 0000000cH

; 750  :         _Constructed_first = _Newvec + _Whereoff;

	mov	edx, DWORD PTR __Whereoff$[ebp]
	mov	eax, DWORD PTR __Newvec$[ebp]
	lea	ecx, DWORD PTR [eax+edx*4]
	mov	DWORD PTR __Constructed_first$[ebp], ecx

; 751  : 
; 752  :         if (_Whereptr == _Mylast) { // at back, provide strong guarantee

	mov	edx, DWORD PTR __Mylast$[ebp]
	mov	eax, DWORD PTR __Whereptr$[ebp]
	cmp	eax, DWORD PTR [edx]
	jne	SHORT $LN4@Emplace_re

; 753  :             _Umove_if_noexcept(_Myfirst, _Mylast, _Newvec);

	mov	ecx, DWORD PTR __Newvec$[ebp]
	push	ecx
	mov	edx, DWORD PTR __Mylast$[ebp]
	mov	eax, DWORD PTR [edx]
	push	eax
	mov	ecx, DWORD PTR __Myfirst$[ebp]
	mov	edx, DWORD PTR [ecx]
	push	edx
	mov	ecx, DWORD PTR _this$[ebp]
	call	?_Umove_if_noexcept@?$vector@PAVFuzzyTerm@@V?$allocator@PAVFuzzyTerm@@@std@@@std@@AAEXPAPAVFuzzyTerm@@00@Z ; std::vector<FuzzyTerm *,std::allocator<FuzzyTerm *> >::_Umove_if_noexcept

; 754  :         } else { // provide basic guarantee

	jmp	SHORT $LN5@Emplace_re
$LN4@Emplace_re:

; 755  :             _Umove(_Myfirst, _Whereptr, _Newvec);

	mov	eax, DWORD PTR __Newvec$[ebp]
	push	eax
	mov	ecx, DWORD PTR __Whereptr$[ebp]
	push	ecx
	mov	edx, DWORD PTR __Myfirst$[ebp]
	mov	eax, DWORD PTR [edx]
	push	eax
	mov	ecx, DWORD PTR _this$[ebp]
	call	?_Umove@?$vector@PAVFuzzyTerm@@V?$allocator@PAVFuzzyTerm@@@std@@@std@@AAEPAPAVFuzzyTerm@@PAPAV3@00@Z ; std::vector<FuzzyTerm *,std::allocator<FuzzyTerm *> >::_Umove

; 756  :             _Constructed_first = _Newvec;

	mov	ecx, DWORD PTR __Newvec$[ebp]
	mov	DWORD PTR __Constructed_first$[ebp], ecx

; 757  :             _Umove(_Whereptr, _Mylast, _Newvec + _Whereoff + 1);

	mov	edx, DWORD PTR __Whereoff$[ebp]
	mov	eax, DWORD PTR __Newvec$[ebp]
	lea	ecx, DWORD PTR [eax+edx*4+4]
	push	ecx
	mov	edx, DWORD PTR __Mylast$[ebp]
	mov	eax, DWORD PTR [edx]
	push	eax
	mov	ecx, DWORD PTR __Whereptr$[ebp]
	push	ecx
	mov	ecx, DWORD PTR _this$[ebp]
	call	?_Umove@?$vector@PAVFuzzyTerm@@V?$allocator@PAVFuzzyTerm@@@std@@@std@@AAEPAPAVFuzzyTerm@@PAPAV3@00@Z ; std::vector<FuzzyTerm *,std::allocator<FuzzyTerm *> >::_Umove
$LN5@Emplace_re:
	jmp	SHORT $LN7@Emplace_re
__catch$??$_Emplace_reallocate@PAVFuzzyTerm@@@?$vector@PAVFuzzyTerm@@V?$allocator@PAVFuzzyTerm@@@std@@@std@@QAEPAPAVFuzzyTerm@@QAPAV2@$$QAPAV2@@Z$0:

; 758  :         }
; 759  :         _CATCH_ALL
; 760  :         _Destroy(_Constructed_first, _Constructed_last);

	mov	edx, DWORD PTR __Constructed_last$[ebp]
	push	edx
	mov	eax, DWORD PTR __Constructed_first$[ebp]
	push	eax
	mov	ecx, DWORD PTR _this$[ebp]
	call	?_Destroy@?$vector@PAVFuzzyTerm@@V?$allocator@PAVFuzzyTerm@@@std@@@std@@AAEXPAPAVFuzzyTerm@@0@Z ; std::vector<FuzzyTerm *,std::allocator<FuzzyTerm *> >::_Destroy

; 761  :         _Al.deallocate(_Newvec, _Newcapacity);

	mov	ecx, DWORD PTR __Newcapacity$[ebp]
	push	ecx
	mov	edx, DWORD PTR __Newvec$[ebp]
	push	edx
	mov	ecx, DWORD PTR __Al$[ebp]
	call	?deallocate@?$allocator@PAVFuzzyTerm@@@std@@QAEXQAPAVFuzzyTerm@@I@Z ; std::allocator<FuzzyTerm *>::deallocate

; 762  :         _RERAISE;

	push	0
	push	0
	call	__CxxThrowException@8

; 763  :         _CATCH_END

	mov	eax, $LN10@Emplace_re
	ret	0
$LN7@Emplace_re:
	mov	DWORD PTR __$EHRec$[ebp+12], -1
	jmp	SHORT __tryend$??$_Emplace_reallocate@PAVFuzzyTerm@@@?$vector@PAVFuzzyTerm@@V?$allocator@PAVFuzzyTerm@@@std@@@std@@QAEPAPAVFuzzyTerm@@QAPAV2@$$QAPAV2@@Z$1
$LN10@Emplace_re:
	mov	DWORD PTR __$EHRec$[ebp+12], -1
__tryend$??$_Emplace_reallocate@PAVFuzzyTerm@@@?$vector@PAVFuzzyTerm@@V?$allocator@PAVFuzzyTerm@@@std@@@std@@QAEPAPAVFuzzyTerm@@QAPAV2@$$QAPAV2@@Z$1:

; 764  : 
; 765  :         _Change_array(_Newvec, _Newsize, _Newcapacity);

	mov	eax, DWORD PTR __Newcapacity$[ebp]
	push	eax
	mov	ecx, DWORD PTR __Newsize$[ebp]
	push	ecx
	mov	edx, DWORD PTR __Newvec$[ebp]
	push	edx
	mov	ecx, DWORD PTR _this$[ebp]
	call	?_Change_array@?$vector@PAVFuzzyTerm@@V?$allocator@PAVFuzzyTerm@@@std@@@std@@AAEXQAPAVFuzzyTerm@@II@Z ; std::vector<FuzzyTerm *,std::allocator<FuzzyTerm *> >::_Change_array

; 766  :         return _Newvec + _Whereoff;

	mov	eax, DWORD PTR __Whereoff$[ebp]
	mov	ecx, DWORD PTR __Newvec$[ebp]
	lea	eax, DWORD PTR [ecx+eax*4]
$LN6@Emplace_re:

; 767  :     }

	mov	ecx, DWORD PTR __$EHRec$[ebp+4]
	mov	DWORD PTR fs:0, ecx
	pop	ecx
	pop	edi
	pop	esi
	pop	ebx
	add	esp, 64					; 00000040H
	cmp	ebp, esp
	call	__RTC_CheckEsp
	mov	esp, ebp
	pop	ebp
	ret	8
	int	3
	int	3
	int	3
	int	3
	int	3
_TEXT	ENDS
;	COMDAT text$x
text$x	SEGMENT
__ehhandler$??$_Emplace_reallocate@PAVFuzzyTerm@@@?$vector@PAVFuzzyTerm@@V?$allocator@PAVFuzzyTerm@@@std@@@std@@QAEPAPAVFuzzyTerm@@QAPAV2@$$QAPAV2@@Z:
	npad	1
	npad	1
	mov	edx, DWORD PTR [esp+8]
	lea	eax, DWORD PTR [edx+12]
	mov	ecx, DWORD PTR [edx-68]
	xor	ecx, eax
	call	@__security_check_cookie@4
	mov	eax, OFFSET __ehfuncinfo$??$_Emplace_reallocate@PAVFuzzyTerm@@@?$vector@PAVFuzzyTerm@@V?$allocator@PAVFuzzyTerm@@@std@@@std@@QAEPAPAVFuzzyTerm@@QAPAV2@$$QAPAV2@@Z
	jmp	___CxxFrameHandler3
text$x	ENDS
??$_Emplace_reallocate@PAVFuzzyTerm@@@?$vector@PAVFuzzyTerm@@V?$allocator@PAVFuzzyTerm@@@std@@@std@@QAEPAPAVFuzzyTerm@@QAPAV2@$$QAPAV2@@Z ENDP ; std::vector<FuzzyTerm *,std::allocator<FuzzyTerm *> >::_Emplace_reallocate<FuzzyTerm *>
; Function compile flags: /Odtp /RTCsu
; File C:\Program Files (x86)\Microsoft Visual Studio\2019\Community\VC\Tools\MSVC\14.27.29110\include\xmemory
;	COMDAT ??$construct@PAVFuzzyTerm@@PAV1@@?$_Default_allocator_traits@V?$allocator@PAVFuzzyTerm@@@std@@@std@@SAXAAV?$allocator@PAVFuzzyTerm@@@1@QAPAVFuzzyTerm@@$$QAPAV3@@Z
_TEXT	SEGMENT
$T1 = -4						; size = 4
___formal$ = 8						; size = 4
__Ptr$ = 12						; size = 4
_<_Args_0>$ = 16					; size = 4
??$construct@PAVFuzzyTerm@@PAV1@@?$_Default_allocator_traits@V?$allocator@PAVFuzzyTerm@@@std@@@std@@SAXAAV?$allocator@PAVFuzzyTerm@@@1@QAPAVFuzzyTerm@@$$QAPAV3@@Z PROC ; std::_Default_allocator_traits<std::allocator<FuzzyTerm *> >::construct<FuzzyTerm *,FuzzyTerm *>, COMDAT

; 693  :     static void construct(_Alloc&, _Objty* const _Ptr, _Types&&... _Args) {

	push	ebp
	mov	ebp, esp
	push	ecx
	mov	DWORD PTR [ebp-4], -858993460		; ccccccccH

; 694  :         ::new (const_cast<void*>(static_cast<const volatile void*>(_Ptr))) _Objty(_STD forward<_Types>(_Args)...);

	mov	eax, DWORD PTR __Ptr$[ebp]
	push	eax
	push	4
	call	??2@YAPAXIPAX@Z				; operator new
	add	esp, 8
	mov	DWORD PTR $T1[ebp], eax
	mov	ecx, DWORD PTR _<_Args_0>$[ebp]
	push	ecx
	call	??$forward@PAVFuzzyTerm@@@std@@YA$$QAPAVFuzzyTerm@@AAPAV1@@Z ; std::forward<FuzzyTerm *>
	add	esp, 4
	mov	edx, DWORD PTR $T1[ebp]
	mov	eax, DWORD PTR [eax]
	mov	DWORD PTR [edx], eax

; 695  :     }

	add	esp, 4
	cmp	ebp, esp
	call	__RTC_CheckEsp
	mov	esp, ebp
	pop	ebp
	ret	0
??$construct@PAVFuzzyTerm@@PAV1@@?$_Default_allocator_traits@V?$allocator@PAVFuzzyTerm@@@std@@@std@@SAXAAV?$allocator@PAVFuzzyTerm@@@1@QAPAVFuzzyTerm@@$$QAPAV3@@Z ENDP ; std::_Default_allocator_traits<std::allocator<FuzzyTerm *> >::construct<FuzzyTerm *,FuzzyTerm *>
_TEXT	ENDS
; Function compile flags: /Odtp /RTCsu
; File C:\Program Files (x86)\Microsoft Visual Studio\2019\Community\VC\Tools\MSVC\14.27.29110\include\xstddef
;	COMDAT ??$_Unfancy@PAVFuzzyTerm@@@std@@YAPAPAVFuzzyTerm@@PAPAV1@@Z
_TEXT	SEGMENT
__Ptr$ = 8						; size = 4
??$_Unfancy@PAVFuzzyTerm@@@std@@YAPAPAVFuzzyTerm@@PAPAV1@@Z PROC ; std::_Unfancy<FuzzyTerm *>, COMDAT

; 288  : _NODISCARD constexpr _Ty* _Unfancy(_Ty* _Ptr) noexcept { // do nothing for plain pointers

	push	ebp
	mov	ebp, esp

; 289  :     return _Ptr;

	mov	eax, DWORD PTR __Ptr$[ebp]

; 290  : }

	pop	ebp
	ret	0
??$_Unfancy@PAVFuzzyTerm@@@std@@YAPAPAVFuzzyTerm@@PAPAV1@@Z ENDP ; std::_Unfancy<FuzzyTerm *>
_TEXT	ENDS
; Function compile flags: /Odtp /RTCsu
; File C:\Program Files (x86)\Microsoft Visual Studio\2019\Community\VC\Tools\MSVC\14.27.29110\include\vector
;	COMDAT ??$_Emplace_back_with_unused_capacity@PAVFuzzyTerm@@@?$vector@PAVFuzzyTerm@@V?$allocator@PAVFuzzyTerm@@@std@@@std@@AAE@$$QAPAVFuzzyTerm@@@Z
_TEXT	SEGMENT
__Result$ = -16						; size = 4
__Mylast$ = -12						; size = 4
__My_data$ = -8						; size = 4
_this$ = -4						; size = 4
_<_Val_0>$ = 8						; size = 4
??$_Emplace_back_with_unused_capacity@PAVFuzzyTerm@@@?$vector@PAVFuzzyTerm@@V?$allocator@PAVFuzzyTerm@@@std@@@std@@AAE@$$QAPAVFuzzyTerm@@@Z PROC ; std::vector<FuzzyTerm *,std::allocator<FuzzyTerm *> >::_Emplace_back_with_unused_capacity<FuzzyTerm *>, COMDAT
; _this$ = ecx

; 682  :     decltype(auto) _Emplace_back_with_unused_capacity(_Valty&&... _Val) {

	push	ebp
	mov	ebp, esp
	sub	esp, 16					; 00000010H
	mov	eax, -858993460				; ccccccccH
	mov	DWORD PTR [ebp-16], eax
	mov	DWORD PTR [ebp-12], eax
	mov	DWORD PTR [ebp-8], eax
	mov	DWORD PTR [ebp-4], eax
	mov	DWORD PTR _this$[ebp], ecx

; 683  :         // insert by perfectly forwarding into element at end, provide strong guarantee
; 684  :         auto& _My_data   = _Mypair._Myval2;

	mov	eax, DWORD PTR _this$[ebp]
	mov	DWORD PTR __My_data$[ebp], eax

; 685  :         pointer& _Mylast = _My_data._Mylast;

	mov	ecx, DWORD PTR __My_data$[ebp]
	add	ecx, 8
	mov	DWORD PTR __Mylast$[ebp], ecx

; 686  :         _STL_INTERNAL_CHECK(_Mylast != _My_data._Myend); // check that we have unused capacity
; 687  :         _Alty_traits::construct(_Getal(), _Unfancy(_Mylast), _STD forward<_Valty>(_Val)...);

	mov	edx, DWORD PTR _<_Val_0>$[ebp]
	push	edx
	call	??$forward@PAVFuzzyTerm@@@std@@YA$$QAPAVFuzzyTerm@@AAPAV1@@Z ; std::forward<FuzzyTerm *>
	add	esp, 4
	push	eax
	mov	eax, DWORD PTR __Mylast$[ebp]
	mov	ecx, DWORD PTR [eax]
	push	ecx
	call	??$_Unfancy@PAVFuzzyTerm@@@std@@YAPAPAVFuzzyTerm@@PAPAV1@@Z ; std::_Unfancy<FuzzyTerm *>
	add	esp, 4
	push	eax
	mov	ecx, DWORD PTR _this$[ebp]
	call	?_Getal@?$vector@PAVFuzzyTerm@@V?$allocator@PAVFuzzyTerm@@@std@@@std@@AAEAAV?$allocator@PAVFuzzyTerm@@@2@XZ ; std::vector<FuzzyTerm *,std::allocator<FuzzyTerm *> >::_Getal
	push	eax
	call	??$construct@PAVFuzzyTerm@@PAV1@@?$_Default_allocator_traits@V?$allocator@PAVFuzzyTerm@@@std@@@std@@SAXAAV?$allocator@PAVFuzzyTerm@@@1@QAPAVFuzzyTerm@@$$QAPAV3@@Z ; std::_Default_allocator_traits<std::allocator<FuzzyTerm *> >::construct<FuzzyTerm *,FuzzyTerm *>
	add	esp, 12					; 0000000cH

; 688  :         _Orphan_range(_Mylast, _Mylast);

	mov	edx, DWORD PTR __Mylast$[ebp]
	mov	eax, DWORD PTR [edx]
	push	eax
	mov	ecx, DWORD PTR __Mylast$[ebp]
	mov	edx, DWORD PTR [ecx]
	push	edx
	mov	ecx, DWORD PTR _this$[ebp]
	call	?_Orphan_range@?$vector@PAVFuzzyTerm@@V?$allocator@PAVFuzzyTerm@@@std@@@std@@ABEXPAPAVFuzzyTerm@@0@Z ; std::vector<FuzzyTerm *,std::allocator<FuzzyTerm *> >::_Orphan_range

; 689  :         _Ty& _Result = *_Mylast;

	mov	eax, DWORD PTR __Mylast$[ebp]
	mov	ecx, DWORD PTR [eax]
	mov	DWORD PTR __Result$[ebp], ecx

; 690  :         ++_Mylast;

	mov	edx, DWORD PTR __Mylast$[ebp]
	mov	eax, DWORD PTR [edx]
	add	eax, 4
	mov	ecx, DWORD PTR __Mylast$[ebp]
	mov	DWORD PTR [ecx], eax

; 691  : #if _HAS_CXX17
; 692  :         return _Result;
; 693  : #else // ^^^ _HAS_CXX17 ^^^ // vvv !_HAS_CXX17 vvv
; 694  :         (void) _Result;
; 695  : #endif // _HAS_CXX17
; 696  :     }

	add	esp, 16					; 00000010H
	cmp	ebp, esp
	call	__RTC_CheckEsp
	mov	esp, ebp
	pop	ebp
	ret	4
??$_Emplace_back_with_unused_capacity@PAVFuzzyTerm@@@?$vector@PAVFuzzyTerm@@V?$allocator@PAVFuzzyTerm@@@std@@@std@@AAE@$$QAPAVFuzzyTerm@@@Z ENDP ; std::vector<FuzzyTerm *,std::allocator<FuzzyTerm *> >::_Emplace_back_with_unused_capacity<FuzzyTerm *>
_TEXT	ENDS
; Function compile flags: /Odtp /RTCsu
; File C:\Program Files (x86)\Microsoft Visual Studio\2019\Community\VC\Tools\MSVC\14.27.29110\include\type_traits
;	COMDAT ??$forward@PAVFuzzyTerm@@@std@@YA$$QAPAVFuzzyTerm@@AAPAV1@@Z
_TEXT	SEGMENT
__Arg$ = 8						; size = 4
??$forward@PAVFuzzyTerm@@@std@@YA$$QAPAVFuzzyTerm@@AAPAV1@@Z PROC ; std::forward<FuzzyTerm *>, COMDAT

; 1454 :     remove_reference_t<_Ty>& _Arg) noexcept { // forward an lvalue as either an lvalue or an rvalue

	push	ebp
	mov	ebp, esp

; 1455 :     return static_cast<_Ty&&>(_Arg);

	mov	eax, DWORD PTR __Arg$[ebp]

; 1456 : }

	pop	ebp
	ret	0
??$forward@PAVFuzzyTerm@@@std@@YA$$QAPAVFuzzyTerm@@AAPAV1@@Z ENDP ; std::forward<FuzzyTerm *>
_TEXT	ENDS
; Function compile flags: /Odtp /RTCsu
; File C:\Program Files (x86)\Microsoft Visual Studio\2019\Community\VC\Tools\MSVC\14.27.29110\include\vector
;	COMDAT ??$emplace_back@PAVFuzzyTerm@@@?$vector@PAVFuzzyTerm@@V?$allocator@PAVFuzzyTerm@@@std@@@std@@QAE@$$QAPAVFuzzyTerm@@@Z
_TEXT	SEGMENT
__Result$ = -16						; size = 4
__Mylast$ = -12						; size = 4
__My_data$ = -8						; size = 4
_this$ = -4						; size = 4
_<_Val_0>$ = 8						; size = 4
??$emplace_back@PAVFuzzyTerm@@@?$vector@PAVFuzzyTerm@@V?$allocator@PAVFuzzyTerm@@@std@@@std@@QAE@$$QAPAVFuzzyTerm@@@Z PROC ; std::vector<FuzzyTerm *,std::allocator<FuzzyTerm *> >::emplace_back<FuzzyTerm *>, COMDAT
; _this$ = ecx

; 700  :     decltype(auto) emplace_back(_Valty&&... _Val) {

	push	ebp
	mov	ebp, esp
	sub	esp, 16					; 00000010H
	mov	eax, -858993460				; ccccccccH
	mov	DWORD PTR [ebp-16], eax
	mov	DWORD PTR [ebp-12], eax
	mov	DWORD PTR [ebp-8], eax
	mov	DWORD PTR [ebp-4], eax
	mov	DWORD PTR _this$[ebp], ecx

; 701  :         // insert by perfectly forwarding into element at end, provide strong guarantee
; 702  :         auto& _My_data   = _Mypair._Myval2;

	mov	eax, DWORD PTR _this$[ebp]
	mov	DWORD PTR __My_data$[ebp], eax

; 703  :         pointer& _Mylast = _My_data._Mylast;

	mov	ecx, DWORD PTR __My_data$[ebp]
	add	ecx, 8
	mov	DWORD PTR __Mylast$[ebp], ecx

; 704  :         if (_Mylast != _My_data._Myend) {

	mov	edx, DWORD PTR __Mylast$[ebp]
	mov	eax, DWORD PTR __My_data$[ebp]
	mov	ecx, DWORD PTR [edx]
	cmp	ecx, DWORD PTR [eax+12]
	je	SHORT $LN2@emplace_ba

; 705  :             return _Emplace_back_with_unused_capacity(_STD forward<_Valty>(_Val)...);

	mov	edx, DWORD PTR _<_Val_0>$[ebp]
	push	edx
	call	??$forward@PAVFuzzyTerm@@@std@@YA$$QAPAVFuzzyTerm@@AAPAV1@@Z ; std::forward<FuzzyTerm *>
	add	esp, 4
	push	eax
	mov	ecx, DWORD PTR _this$[ebp]
	call	??$_Emplace_back_with_unused_capacity@PAVFuzzyTerm@@@?$vector@PAVFuzzyTerm@@V?$allocator@PAVFuzzyTerm@@@std@@@std@@AAE@$$QAPAVFuzzyTerm@@@Z ; std::vector<FuzzyTerm *,std::allocator<FuzzyTerm *> >::_Emplace_back_with_unused_capacity<FuzzyTerm *>
	jmp	SHORT $LN1@emplace_ba
$LN2@emplace_ba:

; 706  :         }
; 707  : 
; 708  :         _Ty& _Result = *_Emplace_reallocate(_Mylast, _STD forward<_Valty>(_Val)...);

	mov	eax, DWORD PTR _<_Val_0>$[ebp]
	push	eax
	call	??$forward@PAVFuzzyTerm@@@std@@YA$$QAPAVFuzzyTerm@@AAPAV1@@Z ; std::forward<FuzzyTerm *>
	add	esp, 4
	push	eax
	mov	ecx, DWORD PTR __Mylast$[ebp]
	mov	edx, DWORD PTR [ecx]
	push	edx
	mov	ecx, DWORD PTR _this$[ebp]
	call	??$_Emplace_reallocate@PAVFuzzyTerm@@@?$vector@PAVFuzzyTerm@@V?$allocator@PAVFuzzyTerm@@@std@@@std@@QAEPAPAVFuzzyTerm@@QAPAV2@$$QAPAV2@@Z ; std::vector<FuzzyTerm *,std::allocator<FuzzyTerm *> >::_Emplace_reallocate<FuzzyTerm *>
	mov	DWORD PTR __Result$[ebp], eax
$LN1@emplace_ba:

; 709  : #if _HAS_CXX17
; 710  :         return _Result;
; 711  : #else // ^^^ _HAS_CXX17 ^^^ // vvv !_HAS_CXX17 vvv
; 712  :         (void) _Result;
; 713  : #endif // _HAS_CXX17
; 714  :     }

	add	esp, 16					; 00000010H
	cmp	ebp, esp
	call	__RTC_CheckEsp
	mov	esp, ebp
	pop	ebp
	ret	4
??$emplace_back@PAVFuzzyTerm@@@?$vector@PAVFuzzyTerm@@V?$allocator@PAVFuzzyTerm@@@std@@@std@@QAE@$$QAPAVFuzzyTerm@@@Z ENDP ; std::vector<FuzzyTerm *,std::allocator<FuzzyTerm *> >::emplace_back<FuzzyTerm *>
_TEXT	ENDS
; Function compile flags: /Odtp /RTCsu
; File C:\Program Files (x86)\Microsoft Visual Studio\2019\Community\VC\Tools\MSVC\14.27.29110\include\type_traits
;	COMDAT ??$move@AAPAVFuzzyTerm@@@std@@YA$$QAPAVFuzzyTerm@@AAPAV1@@Z
_TEXT	SEGMENT
__Arg$ = 8						; size = 4
??$move@AAPAVFuzzyTerm@@@std@@YA$$QAPAVFuzzyTerm@@AAPAV1@@Z PROC ; std::move<FuzzyTerm * &>, COMDAT

; 1466 : _NODISCARD constexpr remove_reference_t<_Ty>&& move(_Ty&& _Arg) noexcept { // forward _Arg as movable

	push	ebp
	mov	ebp, esp

; 1467 :     return static_cast<remove_reference_t<_Ty>&&>(_Arg);

	mov	eax, DWORD PTR __Arg$[ebp]

; 1468 : }

	pop	ebp
	ret	0
??$move@AAPAVFuzzyTerm@@@std@@YA$$QAPAVFuzzyTerm@@AAPAV1@@Z ENDP ; std::move<FuzzyTerm * &>
_TEXT	ENDS
; Function compile flags: /Odtp /RTCsu
; File C:\Program Files (x86)\Microsoft Visual Studio\2019\Community\VC\Tools\MSVC\14.27.29110\include\xstddef
;	COMDAT ??$addressof@V?$_Vector_val@U?$_Simple_types@PAVFuzzyTerm@@@std@@@std@@@std@@YAPAV?$_Vector_val@U?$_Simple_types@PAVFuzzyTerm@@@std@@@0@AAV10@@Z
_TEXT	SEGMENT
__Val$ = 8						; size = 4
??$addressof@V?$_Vector_val@U?$_Simple_types@PAVFuzzyTerm@@@std@@@std@@@std@@YAPAV?$_Vector_val@U?$_Simple_types@PAVFuzzyTerm@@@std@@@0@AAV10@@Z PROC ; std::addressof<std::_Vector_val<std::_Simple_types<FuzzyTerm *> > >, COMDAT

; 274  : _NODISCARD constexpr _Ty* addressof(_Ty& _Val) noexcept {

	push	ebp
	mov	ebp, esp

; 275  :     return __builtin_addressof(_Val);

	mov	eax, DWORD PTR __Val$[ebp]

; 276  : }

	pop	ebp
	ret	0
??$addressof@V?$_Vector_val@U?$_Simple_types@PAVFuzzyTerm@@@std@@@std@@@std@@YAPAV?$_Vector_val@U?$_Simple_types@PAVFuzzyTerm@@@std@@@0@AAV10@@Z ENDP ; std::addressof<std::_Vector_val<std::_Simple_types<FuzzyTerm *> > >
_TEXT	ENDS
; Function compile flags: /Odtp /RTCsu
; File C:\Program Files (x86)\Microsoft Visual Studio\2019\Community\VC\Tools\MSVC\14.27.29110\include\xstddef
;	COMDAT ??$addressof@$$CBV?$_Vector_val@U?$_Simple_types@PAVFuzzyTerm@@@std@@@std@@@std@@YAPBV?$_Vector_val@U?$_Simple_types@PAVFuzzyTerm@@@std@@@0@ABV10@@Z
_TEXT	SEGMENT
__Val$ = 8						; size = 4
??$addressof@$$CBV?$_Vector_val@U?$_Simple_types@PAVFuzzyTerm@@@std@@@std@@@std@@YAPBV?$_Vector_val@U?$_Simple_types@PAVFuzzyTerm@@@std@@@0@ABV10@@Z PROC ; std::addressof<std::_Vector_val<std::_Simple_types<FuzzyTerm *> > const >, COMDAT

; 274  : _NODISCARD constexpr _Ty* addressof(_Ty& _Val) noexcept {

	push	ebp
	mov	ebp, esp

; 275  :     return __builtin_addressof(_Val);

	mov	eax, DWORD PTR __Val$[ebp]

; 276  : }

	pop	ebp
	ret	0
??$addressof@$$CBV?$_Vector_val@U?$_Simple_types@PAVFuzzyTerm@@@std@@@std@@@std@@YAPBV?$_Vector_val@U?$_Simple_types@PAVFuzzyTerm@@@std@@@0@ABV10@@Z ENDP ; std::addressof<std::_Vector_val<std::_Simple_types<FuzzyTerm *> > const >
_TEXT	ENDS
; Function compile flags: /Odtp /RTCsu
;	COMDAT ??0?$_Vector_iterator@V?$_Vector_val@U?$_Simple_types@PAVFuzzyTerm@@@std@@@std@@@std@@QAE@PAPAVFuzzyTerm@@PBU_Container_base12@1@@Z
_TEXT	SEGMENT
_this$ = -4						; size = 4
___param0$ = 8						; size = 4
___param1$ = 12						; size = 4
??0?$_Vector_iterator@V?$_Vector_val@U?$_Simple_types@PAVFuzzyTerm@@@std@@@std@@@std@@QAE@PAPAVFuzzyTerm@@PBU_Container_base12@1@@Z PROC ; std::_Vector_iterator<std::_Vector_val<std::_Simple_types<FuzzyTerm *> > >::_Vector_iterator<std::_Vector_val<std::_Simple_types<FuzzyTerm *> > >, COMDAT
; _this$ = ecx
	push	ebp
	mov	ebp, esp
	push	ecx
	mov	DWORD PTR [ebp-4], -858993460		; ccccccccH
	mov	DWORD PTR _this$[ebp], ecx
	mov	eax, DWORD PTR ___param1$[ebp]
	push	eax
	mov	ecx, DWORD PTR ___param0$[ebp]
	push	ecx
	mov	ecx, DWORD PTR _this$[ebp]
	call	??0?$_Vector_const_iterator@V?$_Vector_val@U?$_Simple_types@PAVFuzzyTerm@@@std@@@std@@@std@@QAE@PAPAVFuzzyTerm@@PBU_Container_base12@1@@Z ; std::_Vector_const_iterator<std::_Vector_val<std::_Simple_types<FuzzyTerm *> > >::_Vector_const_iterator<std::_Vector_val<std::_Simple_types<FuzzyTerm *> > >
	mov	eax, DWORD PTR _this$[ebp]
	add	esp, 4
	cmp	ebp, esp
	call	__RTC_CheckEsp
	mov	esp, ebp
	pop	ebp
	ret	8
??0?$_Vector_iterator@V?$_Vector_val@U?$_Simple_types@PAVFuzzyTerm@@@std@@@std@@@std@@QAE@PAPAVFuzzyTerm@@PBU_Container_base12@1@@Z ENDP ; std::_Vector_iterator<std::_Vector_val<std::_Simple_types<FuzzyTerm *> > >::_Vector_iterator<std::_Vector_val<std::_Simple_types<FuzzyTerm *> > >
_TEXT	ENDS
; Function compile flags: /Odtp /RTCsu
;	COMDAT ??4?$_Vector_iterator@V?$_Vector_val@U?$_Simple_types@PAVFuzzyTerm@@@std@@@std@@@std@@QAEAAV01@$$QAV01@@Z
_TEXT	SEGMENT
_this$ = -4						; size = 4
___that$ = 8						; size = 4
??4?$_Vector_iterator@V?$_Vector_val@U?$_Simple_types@PAVFuzzyTerm@@@std@@@std@@@std@@QAEAAV01@$$QAV01@@Z PROC ; std::_Vector_iterator<std::_Vector_val<std::_Simple_types<FuzzyTerm *> > >::operator=, COMDAT
; _this$ = ecx
	push	ebp
	mov	ebp, esp
	push	ecx
	mov	DWORD PTR [ebp-4], -858993460		; ccccccccH
	mov	DWORD PTR _this$[ebp], ecx
	mov	eax, DWORD PTR ___that$[ebp]
	push	eax
	mov	ecx, DWORD PTR _this$[ebp]
	call	??4?$_Vector_const_iterator@V?$_Vector_val@U?$_Simple_types@PAVFuzzyTerm@@@std@@@std@@@std@@QAEAAV01@$$QAV01@@Z
	mov	eax, DWORD PTR _this$[ebp]
	add	esp, 4
	cmp	ebp, esp
	call	__RTC_CheckEsp
	mov	esp, ebp
	pop	ebp
	ret	4
??4?$_Vector_iterator@V?$_Vector_val@U?$_Simple_types@PAVFuzzyTerm@@@std@@@std@@@std@@QAEAAV01@$$QAV01@@Z ENDP ; std::_Vector_iterator<std::_Vector_val<std::_Simple_types<FuzzyTerm *> > >::operator=
_TEXT	ENDS
; Function compile flags: /Odtp /RTCsu
;	COMDAT ??1?$_Vector_iterator@V?$_Vector_val@U?$_Simple_types@PAVFuzzyTerm@@@std@@@std@@@std@@QAE@XZ
_TEXT	SEGMENT
_this$ = -4						; size = 4
??1?$_Vector_iterator@V?$_Vector_val@U?$_Simple_types@PAVFuzzyTerm@@@std@@@std@@@std@@QAE@XZ PROC ; std::_Vector_iterator<std::_Vector_val<std::_Simple_types<FuzzyTerm *> > >::~_Vector_iterator<std::_Vector_val<std::_Simple_types<FuzzyTerm *> > >, COMDAT
; _this$ = ecx
	push	ebp
	mov	ebp, esp
	push	ecx
	mov	DWORD PTR [ebp-4], -858993460		; ccccccccH
	mov	DWORD PTR _this$[ebp], ecx
	mov	ecx, DWORD PTR _this$[ebp]
	call	??1?$_Vector_const_iterator@V?$_Vector_val@U?$_Simple_types@PAVFuzzyTerm@@@std@@@std@@@std@@QAE@XZ
	add	esp, 4
	cmp	ebp, esp
	call	__RTC_CheckEsp
	mov	esp, ebp
	pop	ebp
	ret	0
??1?$_Vector_iterator@V?$_Vector_val@U?$_Simple_types@PAVFuzzyTerm@@@std@@@std@@@std@@QAE@XZ ENDP ; std::_Vector_iterator<std::_Vector_val<std::_Simple_types<FuzzyTerm *> > >::~_Vector_iterator<std::_Vector_val<std::_Simple_types<FuzzyTerm *> > >
_TEXT	ENDS
; Function compile flags: /Odtp /RTCsu
;	COMDAT ??0?$_Vector_iterator@V?$_Vector_val@U?$_Simple_types@PAVFuzzyTerm@@@std@@@std@@@std@@QAE@XZ
_TEXT	SEGMENT
_this$ = -4						; size = 4
??0?$_Vector_iterator@V?$_Vector_val@U?$_Simple_types@PAVFuzzyTerm@@@std@@@std@@@std@@QAE@XZ PROC ; std::_Vector_iterator<std::_Vector_val<std::_Simple_types<FuzzyTerm *> > >::_Vector_iterator<std::_Vector_val<std::_Simple_types<FuzzyTerm *> > >, COMDAT
; _this$ = ecx
	push	ebp
	mov	ebp, esp
	push	ecx
	mov	DWORD PTR [ebp-4], -858993460		; ccccccccH
	mov	DWORD PTR _this$[ebp], ecx
	mov	ecx, DWORD PTR _this$[ebp]
	call	??0?$_Vector_const_iterator@V?$_Vector_val@U?$_Simple_types@PAVFuzzyTerm@@@std@@@std@@@std@@QAE@XZ ; std::_Vector_const_iterator<std::_Vector_val<std::_Simple_types<FuzzyTerm *> > >::_Vector_const_iterator<std::_Vector_val<std::_Simple_types<FuzzyTerm *> > >
	mov	eax, DWORD PTR _this$[ebp]
	add	esp, 4
	cmp	ebp, esp
	call	__RTC_CheckEsp
	mov	esp, ebp
	pop	ebp
	ret	0
??0?$_Vector_iterator@V?$_Vector_val@U?$_Simple_types@PAVFuzzyTerm@@@std@@@std@@@std@@QAE@XZ ENDP ; std::_Vector_iterator<std::_Vector_val<std::_Simple_types<FuzzyTerm *> > >::_Vector_iterator<std::_Vector_val<std::_Simple_types<FuzzyTerm *> > >
_TEXT	ENDS
; Function compile flags: /Odtp /RTCsu
; File C:\Program Files (x86)\Microsoft Visual Studio\2019\Community\VC\Tools\MSVC\14.27.29110\include\vector
;	COMDAT ??E?$_Vector_iterator@V?$_Vector_val@U?$_Simple_types@PAVFuzzyTerm@@@std@@@std@@@std@@QAEAAV01@XZ
_TEXT	SEGMENT
_this$ = -4						; size = 4
??E?$_Vector_iterator@V?$_Vector_val@U?$_Simple_types@PAVFuzzyTerm@@@std@@@std@@@std@@QAEAAV01@XZ PROC ; std::_Vector_iterator<std::_Vector_val<std::_Simple_types<FuzzyTerm *> > >::operator++, COMDAT
; _this$ = ecx

; 259  :     _Vector_iterator& operator++() {

	push	ebp
	mov	ebp, esp
	push	ecx
	mov	DWORD PTR [ebp-4], -858993460		; ccccccccH
	mov	DWORD PTR _this$[ebp], ecx

; 260  :         _Mybase::operator++();

	mov	ecx, DWORD PTR _this$[ebp]
	call	??E?$_Vector_const_iterator@V?$_Vector_val@U?$_Simple_types@PAVFuzzyTerm@@@std@@@std@@@std@@QAEAAV01@XZ ; std::_Vector_const_iterator<std::_Vector_val<std::_Simple_types<FuzzyTerm *> > >::operator++

; 261  :         return *this;

	mov	eax, DWORD PTR _this$[ebp]

; 262  :     }

	add	esp, 4
	cmp	ebp, esp
	call	__RTC_CheckEsp
	mov	esp, ebp
	pop	ebp
	ret	0
??E?$_Vector_iterator@V?$_Vector_val@U?$_Simple_types@PAVFuzzyTerm@@@std@@@std@@@std@@QAEAAV01@XZ ENDP ; std::_Vector_iterator<std::_Vector_val<std::_Simple_types<FuzzyTerm *> > >::operator++
_TEXT	ENDS
; Function compile flags: /Odtp /RTCsu
; File C:\Program Files (x86)\Microsoft Visual Studio\2019\Community\VC\Tools\MSVC\14.27.29110\include\vector
;	COMDAT ??D?$_Vector_iterator@V?$_Vector_val@U?$_Simple_types@PAVFuzzyTerm@@@std@@@std@@@std@@QBEAAPAVFuzzyTerm@@XZ
_TEXT	SEGMENT
_this$ = -4						; size = 4
??D?$_Vector_iterator@V?$_Vector_val@U?$_Simple_types@PAVFuzzyTerm@@@std@@@std@@@std@@QBEAAPAVFuzzyTerm@@XZ PROC ; std::_Vector_iterator<std::_Vector_val<std::_Simple_types<FuzzyTerm *> > >::operator*, COMDAT
; _this$ = ecx

; 251  :     _NODISCARD reference operator*() const {

	push	ebp
	mov	ebp, esp
	push	ecx
	mov	DWORD PTR [ebp-4], -858993460		; ccccccccH
	mov	DWORD PTR _this$[ebp], ecx

; 252  :         return const_cast<reference>(_Mybase::operator*());

	mov	ecx, DWORD PTR _this$[ebp]
	call	??D?$_Vector_const_iterator@V?$_Vector_val@U?$_Simple_types@PAVFuzzyTerm@@@std@@@std@@@std@@QBEABQAVFuzzyTerm@@XZ ; std::_Vector_const_iterator<std::_Vector_val<std::_Simple_types<FuzzyTerm *> > >::operator*

; 253  :     }

	add	esp, 4
	cmp	ebp, esp
	call	__RTC_CheckEsp
	mov	esp, ebp
	pop	ebp
	ret	0
??D?$_Vector_iterator@V?$_Vector_val@U?$_Simple_types@PAVFuzzyTerm@@@std@@@std@@@std@@QBEAAPAVFuzzyTerm@@XZ ENDP ; std::_Vector_iterator<std::_Vector_val<std::_Simple_types<FuzzyTerm *> > >::operator*
_TEXT	ENDS
; Function compile flags: /Odtp /RTCsu
;	COMDAT ??4?$_Vector_const_iterator@V?$_Vector_val@U?$_Simple_types@PAVFuzzyTerm@@@std@@@std@@@std@@QAEAAV01@$$QAV01@@Z
_TEXT	SEGMENT
_this$ = -4						; size = 4
___that$ = 8						; size = 4
??4?$_Vector_const_iterator@V?$_Vector_val@U?$_Simple_types@PAVFuzzyTerm@@@std@@@std@@@std@@QAEAAV01@$$QAV01@@Z PROC ; std::_Vector_const_iterator<std::_Vector_val<std::_Simple_types<FuzzyTerm *> > >::operator=, COMDAT
; _this$ = ecx
	push	ebp
	mov	ebp, esp
	push	ecx
	mov	DWORD PTR [ebp-4], -858993460		; ccccccccH
	mov	DWORD PTR _this$[ebp], ecx
	mov	eax, DWORD PTR ___that$[ebp]
	push	eax
	mov	ecx, DWORD PTR _this$[ebp]
	call	??4_Iterator_base12@std@@QAEAAU01@ABU01@@Z ; std::_Iterator_base12::operator=
	mov	ecx, DWORD PTR _this$[ebp]
	mov	edx, DWORD PTR ___that$[ebp]
	mov	eax, DWORD PTR [edx+8]
	mov	DWORD PTR [ecx+8], eax
	mov	eax, DWORD PTR _this$[ebp]
	add	esp, 4
	cmp	ebp, esp
	call	__RTC_CheckEsp
	mov	esp, ebp
	pop	ebp
	ret	4
??4?$_Vector_const_iterator@V?$_Vector_val@U?$_Simple_types@PAVFuzzyTerm@@@std@@@std@@@std@@QAEAAV01@$$QAV01@@Z ENDP ; std::_Vector_const_iterator<std::_Vector_val<std::_Simple_types<FuzzyTerm *> > >::operator=
_TEXT	ENDS
; Function compile flags: /Odtp /RTCsu
;	COMDAT ??1?$_Vector_const_iterator@V?$_Vector_val@U?$_Simple_types@PAVFuzzyTerm@@@std@@@std@@@std@@QAE@XZ
_TEXT	SEGMENT
_this$ = -4						; size = 4
??1?$_Vector_const_iterator@V?$_Vector_val@U?$_Simple_types@PAVFuzzyTerm@@@std@@@std@@@std@@QAE@XZ PROC ; std::_Vector_const_iterator<std::_Vector_val<std::_Simple_types<FuzzyTerm *> > >::~_Vector_const_iterator<std::_Vector_val<std::_Simple_types<FuzzyTerm *> > >, COMDAT
; _this$ = ecx
	push	ebp
	mov	ebp, esp
	push	ecx
	mov	DWORD PTR [ebp-4], -858993460		; ccccccccH
	mov	DWORD PTR _this$[ebp], ecx
	mov	ecx, DWORD PTR _this$[ebp]
	call	??1_Iterator_base12@std@@QAE@XZ		; std::_Iterator_base12::~_Iterator_base12
	add	esp, 4
	cmp	ebp, esp
	call	__RTC_CheckEsp
	mov	esp, ebp
	pop	ebp
	ret	0
??1?$_Vector_const_iterator@V?$_Vector_val@U?$_Simple_types@PAVFuzzyTerm@@@std@@@std@@@std@@QAE@XZ ENDP ; std::_Vector_const_iterator<std::_Vector_val<std::_Simple_types<FuzzyTerm *> > >::~_Vector_const_iterator<std::_Vector_val<std::_Simple_types<FuzzyTerm *> > >
_TEXT	ENDS
; Function compile flags: /Odtp /RTCsu
; File C:\Program Files (x86)\Microsoft Visual Studio\2019\Community\VC\Tools\MSVC\14.27.29110\include\vector
;	COMDAT ?_Compat@?$_Vector_const_iterator@V?$_Vector_val@U?$_Simple_types@PAVFuzzyTerm@@@std@@@std@@@std@@QBEXABV12@@Z
_TEXT	SEGMENT
_this$ = -4						; size = 4
__Right$ = 8						; size = 4
?_Compat@?$_Vector_const_iterator@V?$_Vector_val@U?$_Simple_types@PAVFuzzyTerm@@@std@@@std@@@std@@QBEXABV12@@Z PROC ; std::_Vector_const_iterator<std::_Vector_val<std::_Simple_types<FuzzyTerm *> > >::_Compat, COMDAT
; _this$ = ecx

; 173  :     void _Compat(const _Vector_const_iterator& _Right) const { // test for compatible iterator pair

	push	ebp
	mov	ebp, esp
	push	ecx
	push	esi
	mov	DWORD PTR [ebp-4], -858993460		; ccccccccH
	mov	DWORD PTR _this$[ebp], ecx
$LN4@Compat:

; 174  : #if _ITERATOR_DEBUG_LEVEL == 0
; 175  :         (void) _Right;
; 176  : #else // ^^^ _ITERATOR_DEBUG_LEVEL == 0 ^^^ // vvv _ITERATOR_DEBUG_LEVEL != 0 vvv
; 177  :         _STL_VERIFY(this->_Getcont() == _Right._Getcont(), "vector iterators incompatible");

	mov	ecx, DWORD PTR _this$[ebp]
	call	?_Getcont@_Iterator_base12@std@@QBEPBU_Container_base12@2@XZ ; std::_Iterator_base12::_Getcont
	mov	esi, eax
	mov	ecx, DWORD PTR __Right$[ebp]
	call	?_Getcont@_Iterator_base12@std@@QBEPBU_Container_base12@2@XZ ; std::_Iterator_base12::_Getcont
	cmp	esi, eax
	jne	SHORT $LN7@Compat
	jmp	SHORT $LN2@Compat
$LN7@Compat:
	push	OFFSET ??_C@_0BO@CAOBBIOC@vector?5iterators?5incompatible@
	push	OFFSET ??_C@_02DKCKIIND@?$CFs@
	push	0
	push	177					; 000000b1H
	push	OFFSET ??_C@_0GH@HACIOKNJ@C?3?2Program?5Files?5?$CIx86?$CJ?2Microsof@
	push	2
	call	__CrtDbgReport
	add	esp, 24					; 00000018H
	cmp	eax, 1
	jne	SHORT $LN11@Compat
	int	3
$LN11@Compat:
	push	0
	push	177					; 000000b1H
	push	OFFSET ??_C@_1MO@KFAGNMIJ@?$AAC?$AA?3?$AA?2?$AAP?$AAr?$AAo?$AAg?$AAr?$AAa?$AAm?$AA?5?$AAF?$AAi?$AAl?$AAe@
	push	OFFSET ??_C@_1NK@PBOLGCJB@?$AAs?$AAt?$AAd?$AA?3?$AA?3?$AA_?$AAV?$AAe?$AAc?$AAt?$AAo?$AAr?$AA_?$AAc?$AAo@
	push	OFFSET ??_C@_1EA@DJDGNIII@?$AA?$CC?$AAv?$AAe?$AAc?$AAt?$AAo?$AAr?$AA?5?$AAi?$AAt?$AAe?$AAr?$AAa?$AAt?$AAo@
	call	__invalid_parameter
	add	esp, 20					; 00000014H
	xor	ecx, ecx
	jne	SHORT $LN7@Compat
$LN2@Compat:
	xor	edx, edx
	jne	SHORT $LN4@Compat

; 178  : #endif // _ITERATOR_DEBUG_LEVEL == 0
; 179  :     }

	pop	esi
	add	esp, 4
	cmp	ebp, esp
	call	__RTC_CheckEsp
	mov	esp, ebp
	pop	ebp
	ret	4
?_Compat@?$_Vector_const_iterator@V?$_Vector_val@U?$_Simple_types@PAVFuzzyTerm@@@std@@@std@@@std@@QBEXABV12@@Z ENDP ; std::_Vector_const_iterator<std::_Vector_val<std::_Simple_types<FuzzyTerm *> > >::_Compat
_TEXT	ENDS
; Function compile flags: /Odtp /RTCsu
; File C:\Program Files (x86)\Microsoft Visual Studio\2019\Community\VC\Tools\MSVC\14.27.29110\include\vector
;	COMDAT ??9?$_Vector_const_iterator@V?$_Vector_val@U?$_Simple_types@PAVFuzzyTerm@@@std@@@std@@@std@@QBE_NABV01@@Z
_TEXT	SEGMENT
tv69 = -8						; size = 4
_this$ = -4						; size = 4
__Right$ = 8						; size = 4
??9?$_Vector_const_iterator@V?$_Vector_val@U?$_Simple_types@PAVFuzzyTerm@@@std@@@std@@@std@@QBE_NABV01@@Z PROC ; std::_Vector_const_iterator<std::_Vector_val<std::_Simple_types<FuzzyTerm *> > >::operator!=, COMDAT
; _this$ = ecx

; 152  :     _NODISCARD bool operator!=(const _Vector_const_iterator& _Right) const {

	push	ebp
	mov	ebp, esp
	sub	esp, 8
	mov	DWORD PTR [ebp-8], -858993460		; ccccccccH
	mov	DWORD PTR [ebp-4], -858993460		; ccccccccH
	mov	DWORD PTR _this$[ebp], ecx

; 153  :         return !(*this == _Right);

	mov	eax, DWORD PTR __Right$[ebp]
	push	eax
	mov	ecx, DWORD PTR _this$[ebp]
	call	??8?$_Vector_const_iterator@V?$_Vector_val@U?$_Simple_types@PAVFuzzyTerm@@@std@@@std@@@std@@QBE_NABV01@@Z ; std::_Vector_const_iterator<std::_Vector_val<std::_Simple_types<FuzzyTerm *> > >::operator==
	movzx	ecx, al
	test	ecx, ecx
	jne	SHORT $LN3@operator
	mov	DWORD PTR tv69[ebp], 1
	jmp	SHORT $LN4@operator
$LN3@operator:
	mov	DWORD PTR tv69[ebp], 0
$LN4@operator:
	mov	al, BYTE PTR tv69[ebp]

; 154  :     }

	add	esp, 8
	cmp	ebp, esp
	call	__RTC_CheckEsp
	mov	esp, ebp
	pop	ebp
	ret	4
??9?$_Vector_const_iterator@V?$_Vector_val@U?$_Simple_types@PAVFuzzyTerm@@@std@@@std@@@std@@QBE_NABV01@@Z ENDP ; std::_Vector_const_iterator<std::_Vector_val<std::_Simple_types<FuzzyTerm *> > >::operator!=
_TEXT	ENDS
; Function compile flags: /Odtp /RTCsu
; File C:\Program Files (x86)\Microsoft Visual Studio\2019\Community\VC\Tools\MSVC\14.27.29110\include\vector
;	COMDAT ??8?$_Vector_const_iterator@V?$_Vector_val@U?$_Simple_types@PAVFuzzyTerm@@@std@@@std@@@std@@QBE_NABV01@@Z
_TEXT	SEGMENT
tv69 = -8						; size = 4
_this$ = -4						; size = 4
__Right$ = 8						; size = 4
??8?$_Vector_const_iterator@V?$_Vector_val@U?$_Simple_types@PAVFuzzyTerm@@@std@@@std@@@std@@QBE_NABV01@@Z PROC ; std::_Vector_const_iterator<std::_Vector_val<std::_Simple_types<FuzzyTerm *> > >::operator==, COMDAT
; _this$ = ecx

; 147  :     _NODISCARD bool operator==(const _Vector_const_iterator& _Right) const {

	push	ebp
	mov	ebp, esp
	sub	esp, 8
	mov	DWORD PTR [ebp-8], -858993460		; ccccccccH
	mov	DWORD PTR [ebp-4], -858993460		; ccccccccH
	mov	DWORD PTR _this$[ebp], ecx

; 148  :         _Compat(_Right);

	mov	eax, DWORD PTR __Right$[ebp]
	push	eax
	mov	ecx, DWORD PTR _this$[ebp]
	call	?_Compat@?$_Vector_const_iterator@V?$_Vector_val@U?$_Simple_types@PAVFuzzyTerm@@@std@@@std@@@std@@QBEXABV12@@Z ; std::_Vector_const_iterator<std::_Vector_val<std::_Simple_types<FuzzyTerm *> > >::_Compat

; 149  :         return _Ptr == _Right._Ptr;

	mov	ecx, DWORD PTR _this$[ebp]
	mov	edx, DWORD PTR __Right$[ebp]
	mov	eax, DWORD PTR [ecx+8]
	cmp	eax, DWORD PTR [edx+8]
	jne	SHORT $LN3@operator
	mov	DWORD PTR tv69[ebp], 1
	jmp	SHORT $LN4@operator
$LN3@operator:
	mov	DWORD PTR tv69[ebp], 0
$LN4@operator:
	mov	al, BYTE PTR tv69[ebp]

; 150  :     }

	add	esp, 8
	cmp	ebp, esp
	call	__RTC_CheckEsp
	mov	esp, ebp
	pop	ebp
	ret	4
??8?$_Vector_const_iterator@V?$_Vector_val@U?$_Simple_types@PAVFuzzyTerm@@@std@@@std@@@std@@QBE_NABV01@@Z ENDP ; std::_Vector_const_iterator<std::_Vector_val<std::_Simple_types<FuzzyTerm *> > >::operator==
_TEXT	ENDS
; Function compile flags: /Odtp /RTCsu
; File C:\Program Files (x86)\Microsoft Visual Studio\2019\Community\VC\Tools\MSVC\14.27.29110\include\vector
;	COMDAT ??E?$_Vector_const_iterator@V?$_Vector_val@U?$_Simple_types@PAVFuzzyTerm@@@std@@@std@@@std@@QAEAAV01@XZ
_TEXT	SEGMENT
__Mycont$ = -8						; size = 4
_this$ = -4						; size = 4
??E?$_Vector_const_iterator@V?$_Vector_val@U?$_Simple_types@PAVFuzzyTerm@@@std@@@std@@@std@@QAEAAV01@XZ PROC ; std::_Vector_const_iterator<std::_Vector_val<std::_Simple_types<FuzzyTerm *> > >::operator++, COMDAT
; _this$ = ecx

; 68   :     _Vector_const_iterator& operator++() {

	push	ebp
	mov	ebp, esp
	sub	esp, 8
	mov	DWORD PTR [ebp-8], -858993460		; ccccccccH
	mov	DWORD PTR [ebp-4], -858993460		; ccccccccH
	mov	DWORD PTR _this$[ebp], ecx

; 69   : #if _ITERATOR_DEBUG_LEVEL != 0
; 70   :         const auto _Mycont = static_cast<const _Myvec*>(this->_Getcont());

	mov	ecx, DWORD PTR _this$[ebp]
	call	?_Getcont@_Iterator_base12@std@@QBEPBU_Container_base12@2@XZ ; std::_Iterator_base12::_Getcont
	mov	DWORD PTR __Mycont$[ebp], eax
$LN4@operator:

; 71   :         _STL_VERIFY(_Ptr, "can't increment value-initialized vector iterator");

	mov	eax, DWORD PTR _this$[ebp]
	cmp	DWORD PTR [eax+8], 0
	je	SHORT $LN7@operator
	jmp	SHORT $LN2@operator
$LN7@operator:
	push	OFFSET ??_C@_0DC@KEKNBAEB@can?8t?5increment?5value?9initializ@
	push	OFFSET ??_C@_02DKCKIIND@?$CFs@
	push	0
	push	71					; 00000047H
	push	OFFSET ??_C@_0GH@HACIOKNJ@C?3?2Program?5Files?5?$CIx86?$CJ?2Microsof@
	push	2
	call	__CrtDbgReport
	add	esp, 24					; 00000018H
	cmp	eax, 1
	jne	SHORT $LN19@operator
	int	3
$LN19@operator:
	push	0
	push	71					; 00000047H
	push	OFFSET ??_C@_1MO@KFAGNMIJ@?$AAC?$AA?3?$AA?2?$AAP?$AAr?$AAo?$AAg?$AAr?$AAa?$AAm?$AA?5?$AAF?$AAi?$AAl?$AAe@
	push	OFFSET ??_C@_1OC@CGPGIJAB@?$AAs?$AAt?$AAd?$AA?3?$AA?3?$AA_?$AAV?$AAe?$AAc?$AAt?$AAo?$AAr?$AA_?$AAc?$AAo@
	push	OFFSET ??_C@_1GI@EDCILPL@?$AA?$CC?$AAc?$AAa?$AAn?$AA?8?$AAt?$AA?5?$AAi?$AAn?$AAc?$AAr?$AAe?$AAm?$AAe?$AAn@
	call	__invalid_parameter
	add	esp, 20					; 00000014H
	xor	edx, edx
	jne	SHORT $LN7@operator
$LN2@operator:
	xor	eax, eax
	jne	SHORT $LN4@operator
$LN10@operator:

; 72   :         _STL_VERIFY(_Ptr < _Mycont->_Mylast, "can't increment vector iterator past end");

	mov	ecx, DWORD PTR _this$[ebp]
	mov	edx, DWORD PTR __Mycont$[ebp]
	mov	eax, DWORD PTR [ecx+8]
	cmp	eax, DWORD PTR [edx+8]
	jae	SHORT $LN13@operator
	jmp	SHORT $LN8@operator
$LN13@operator:
	push	OFFSET ??_C@_0CJ@OAAAAGPM@can?8t?5increment?5vector?5iterator@
	push	OFFSET ??_C@_02DKCKIIND@?$CFs@
	push	0
	push	72					; 00000048H
	push	OFFSET ??_C@_0GH@HACIOKNJ@C?3?2Program?5Files?5?$CIx86?$CJ?2Microsof@
	push	2
	call	__CrtDbgReport
	add	esp, 24					; 00000018H
	cmp	eax, 1
	jne	SHORT $LN20@operator
	int	3
$LN20@operator:
	push	0
	push	72					; 00000048H
	push	OFFSET ??_C@_1MO@KFAGNMIJ@?$AAC?$AA?3?$AA?2?$AAP?$AAr?$AAo?$AAg?$AAr?$AAa?$AAm?$AA?5?$AAF?$AAi?$AAl?$AAe@
	push	OFFSET ??_C@_1OC@CGPGIJAB@?$AAs?$AAt?$AAd?$AA?3?$AA?3?$AA_?$AAV?$AAe?$AAc?$AAt?$AAo?$AAr?$AA_?$AAc?$AAo@
	push	OFFSET ??_C@_1FG@LDPPKMGP@?$AA?$CC?$AAc?$AAa?$AAn?$AA?8?$AAt?$AA?5?$AAi?$AAn?$AAc?$AAr?$AAe?$AAm?$AAe?$AAn@
	call	__invalid_parameter
	add	esp, 20					; 00000014H
	xor	edx, edx
	jne	SHORT $LN13@operator
$LN8@operator:
	xor	eax, eax
	jne	SHORT $LN10@operator

; 73   : #endif // _ITERATOR_DEBUG_LEVEL != 0
; 74   : 
; 75   :         ++_Ptr;

	mov	ecx, DWORD PTR _this$[ebp]
	mov	edx, DWORD PTR [ecx+8]
	add	edx, 4
	mov	eax, DWORD PTR _this$[ebp]
	mov	DWORD PTR [eax+8], edx

; 76   :         return *this;

	mov	eax, DWORD PTR _this$[ebp]

; 77   :     }

	add	esp, 8
	cmp	ebp, esp
	call	__RTC_CheckEsp
	mov	esp, ebp
	pop	ebp
	ret	0
??E?$_Vector_const_iterator@V?$_Vector_val@U?$_Simple_types@PAVFuzzyTerm@@@std@@@std@@@std@@QAEAAV01@XZ ENDP ; std::_Vector_const_iterator<std::_Vector_val<std::_Simple_types<FuzzyTerm *> > >::operator++
_TEXT	ENDS
; Function compile flags: /Odtp /RTCsu
; File C:\Program Files (x86)\Microsoft Visual Studio\2019\Community\VC\Tools\MSVC\14.27.29110\include\vector
;	COMDAT ??D?$_Vector_const_iterator@V?$_Vector_val@U?$_Simple_types@PAVFuzzyTerm@@@std@@@std@@@std@@QBEABQAVFuzzyTerm@@XZ
_TEXT	SEGMENT
__Mycont$ = -8						; size = 4
_this$ = -4						; size = 4
??D?$_Vector_const_iterator@V?$_Vector_val@U?$_Simple_types@PAVFuzzyTerm@@@std@@@std@@@std@@QBEABQAVFuzzyTerm@@XZ PROC ; std::_Vector_const_iterator<std::_Vector_val<std::_Simple_types<FuzzyTerm *> > >::operator*, COMDAT
; _this$ = ecx

; 46   :     _NODISCARD reference operator*() const {

	push	ebp
	mov	ebp, esp
	sub	esp, 8
	mov	DWORD PTR [ebp-8], -858993460		; ccccccccH
	mov	DWORD PTR [ebp-4], -858993460		; ccccccccH
	mov	DWORD PTR _this$[ebp], ecx

; 47   : #if _ITERATOR_DEBUG_LEVEL != 0
; 48   :         const auto _Mycont = static_cast<const _Myvec*>(this->_Getcont());

	mov	ecx, DWORD PTR _this$[ebp]
	call	?_Getcont@_Iterator_base12@std@@QBEPBU_Container_base12@2@XZ ; std::_Iterator_base12::_Getcont
	mov	DWORD PTR __Mycont$[ebp], eax
$LN4@operator:

; 49   :         _STL_VERIFY(_Ptr, "can't dereference value-initialized vector iterator");

	mov	eax, DWORD PTR _this$[ebp]
	cmp	DWORD PTR [eax+8], 0
	je	SHORT $LN7@operator
	jmp	SHORT $LN2@operator
$LN7@operator:
	push	OFFSET ??_C@_0DE@CHADHGFF@can?8t?5dereference?5value?9initial@
	push	OFFSET ??_C@_02DKCKIIND@?$CFs@
	push	0
	push	49					; 00000031H
	push	OFFSET ??_C@_0GH@HACIOKNJ@C?3?2Program?5Files?5?$CIx86?$CJ?2Microsof@
	push	2
	call	__CrtDbgReport
	add	esp, 24					; 00000018H
	cmp	eax, 1
	jne	SHORT $LN19@operator
	int	3
$LN19@operator:
	push	0
	push	49					; 00000031H
	push	OFFSET ??_C@_1MO@KFAGNMIJ@?$AAC?$AA?3?$AA?2?$AAP?$AAr?$AAo?$AAg?$AAr?$AAa?$AAm?$AA?5?$AAF?$AAi?$AAl?$AAe@
	push	OFFSET ??_C@_1OA@BIBNCNDA@?$AAs?$AAt?$AAd?$AA?3?$AA?3?$AA_?$AAV?$AAe?$AAc?$AAt?$AAo?$AAr?$AA_?$AAc?$AAo@
	push	OFFSET ??_C@_1GM@FNBFNBEL@?$AA?$CC?$AAc?$AAa?$AAn?$AA?8?$AAt?$AA?5?$AAd?$AAe?$AAr?$AAe?$AAf?$AAe?$AAr?$AAe@
	call	__invalid_parameter
	add	esp, 20					; 00000014H
	xor	edx, edx
	jne	SHORT $LN7@operator
$LN2@operator:
	xor	eax, eax
	jne	SHORT $LN4@operator
$LN10@operator:

; 50   :         _STL_VERIFY(

	mov	ecx, DWORD PTR __Mycont$[ebp]
	mov	edx, DWORD PTR _this$[ebp]
	mov	eax, DWORD PTR [ecx+4]
	cmp	eax, DWORD PTR [edx+8]
	ja	SHORT $LN13@operator
	mov	ecx, DWORD PTR _this$[ebp]
	mov	edx, DWORD PTR __Mycont$[ebp]
	mov	eax, DWORD PTR [ecx+8]
	cmp	eax, DWORD PTR [edx+8]
	jae	SHORT $LN13@operator
	jmp	SHORT $LN8@operator
$LN13@operator:
	push	OFFSET ??_C@_0CP@MDHADBHN@can?8t?5dereference?5out?5of?5range?5@
	push	OFFSET ??_C@_02DKCKIIND@?$CFs@
	push	0
	push	51					; 00000033H
	push	OFFSET ??_C@_0GH@HACIOKNJ@C?3?2Program?5Files?5?$CIx86?$CJ?2Microsof@
	push	2
	call	__CrtDbgReport
	add	esp, 24					; 00000018H
	cmp	eax, 1
	jne	SHORT $LN20@operator
	int	3
$LN20@operator:
	push	0
	push	51					; 00000033H
	push	OFFSET ??_C@_1MO@KFAGNMIJ@?$AAC?$AA?3?$AA?2?$AAP?$AAr?$AAo?$AAg?$AAr?$AAa?$AAm?$AA?5?$AAF?$AAi?$AAl?$AAe@
	push	OFFSET ??_C@_1OA@BIBNCNDA@?$AAs?$AAt?$AAd?$AA?3?$AA?3?$AA_?$AAV?$AAe?$AAc?$AAt?$AAo?$AAr?$AA_?$AAc?$AAo@
	push	OFFSET ??_C@_1GC@JDCKOLAC@?$AA?$CC?$AAc?$AAa?$AAn?$AA?8?$AAt?$AA?5?$AAd?$AAe?$AAr?$AAe?$AAf?$AAe?$AAr?$AAe@
	call	__invalid_parameter
	add	esp, 20					; 00000014H
	xor	edx, edx
	jne	SHORT $LN13@operator
$LN8@operator:
	xor	eax, eax
	jne	SHORT $LN10@operator

; 51   :             _Mycont->_Myfirst <= _Ptr && _Ptr < _Mycont->_Mylast, "can't dereference out of range vector iterator");
; 52   : #endif // _ITERATOR_DEBUG_LEVEL != 0
; 53   : 
; 54   :         return *_Ptr;

	mov	ecx, DWORD PTR _this$[ebp]
	mov	eax, DWORD PTR [ecx+8]

; 55   :     }

	add	esp, 8
	cmp	ebp, esp
	call	__RTC_CheckEsp
	mov	esp, ebp
	pop	ebp
	ret	0
??D?$_Vector_const_iterator@V?$_Vector_val@U?$_Simple_types@PAVFuzzyTerm@@@std@@@std@@@std@@QBEABQAVFuzzyTerm@@XZ ENDP ; std::_Vector_const_iterator<std::_Vector_val<std::_Simple_types<FuzzyTerm *> > >::operator*
_TEXT	ENDS
; Function compile flags: /Odtp /RTCsu
; File C:\Program Files (x86)\Microsoft Visual Studio\2019\Community\VC\Tools\MSVC\14.27.29110\include\vector
;	COMDAT ??0?$_Vector_const_iterator@V?$_Vector_val@U?$_Simple_types@PAVFuzzyTerm@@@std@@@std@@@std@@QAE@PAPAVFuzzyTerm@@PBU_Container_base12@1@@Z
_TEXT	SEGMENT
_this$ = -4						; size = 4
__Parg$ = 8						; size = 4
__Pvector$ = 12						; size = 4
??0?$_Vector_const_iterator@V?$_Vector_val@U?$_Simple_types@PAVFuzzyTerm@@@std@@@std@@@std@@QAE@PAPAVFuzzyTerm@@PBU_Container_base12@1@@Z PROC ; std::_Vector_const_iterator<std::_Vector_val<std::_Simple_types<FuzzyTerm *> > >::_Vector_const_iterator<std::_Vector_val<std::_Simple_types<FuzzyTerm *> > >, COMDAT
; _this$ = ecx

; 42   :     _Vector_const_iterator(_Tptr _Parg, const _Container_base* _Pvector) noexcept : _Ptr(_Parg) {

	push	ebp
	mov	ebp, esp
	push	ecx
	mov	DWORD PTR [ebp-4], -858993460		; ccccccccH
	mov	DWORD PTR _this$[ebp], ecx
	mov	ecx, DWORD PTR _this$[ebp]
	call	??0_Iterator_base12@std@@QAE@XZ		; std::_Iterator_base12::_Iterator_base12
	mov	eax, DWORD PTR _this$[ebp]
	mov	ecx, DWORD PTR __Parg$[ebp]
	mov	DWORD PTR [eax+8], ecx

; 43   :         this->_Adopt(_Pvector);

	mov	edx, DWORD PTR __Pvector$[ebp]
	push	edx
	mov	ecx, DWORD PTR _this$[ebp]
	call	?_Adopt@_Iterator_base12@std@@QAEXPBU_Container_base12@2@@Z ; std::_Iterator_base12::_Adopt

; 44   :     }

	mov	eax, DWORD PTR _this$[ebp]
	add	esp, 4
	cmp	ebp, esp
	call	__RTC_CheckEsp
	mov	esp, ebp
	pop	ebp
	ret	8
??0?$_Vector_const_iterator@V?$_Vector_val@U?$_Simple_types@PAVFuzzyTerm@@@std@@@std@@@std@@QAE@PAPAVFuzzyTerm@@PBU_Container_base12@1@@Z ENDP ; std::_Vector_const_iterator<std::_Vector_val<std::_Simple_types<FuzzyTerm *> > >::_Vector_const_iterator<std::_Vector_val<std::_Simple_types<FuzzyTerm *> > >
_TEXT	ENDS
; Function compile flags: /Odtp /RTCsu
; File C:\Program Files (x86)\Microsoft Visual Studio\2019\Community\VC\Tools\MSVC\14.27.29110\include\vector
;	COMDAT ??0?$_Vector_const_iterator@V?$_Vector_val@U?$_Simple_types@PAVFuzzyTerm@@@std@@@std@@@std@@QAE@XZ
_TEXT	SEGMENT
_this$ = -4						; size = 4
??0?$_Vector_const_iterator@V?$_Vector_val@U?$_Simple_types@PAVFuzzyTerm@@@std@@@std@@@std@@QAE@XZ PROC ; std::_Vector_const_iterator<std::_Vector_val<std::_Simple_types<FuzzyTerm *> > >::_Vector_const_iterator<std::_Vector_val<std::_Simple_types<FuzzyTerm *> > >, COMDAT
; _this$ = ecx

; 40   :     _Vector_const_iterator() noexcept : _Ptr() {}

	push	ebp
	mov	ebp, esp
	push	ecx
	mov	DWORD PTR [ebp-4], -858993460		; ccccccccH
	mov	DWORD PTR _this$[ebp], ecx
	mov	ecx, DWORD PTR _this$[ebp]
	call	??0_Iterator_base12@std@@QAE@XZ		; std::_Iterator_base12::_Iterator_base12
	mov	eax, DWORD PTR _this$[ebp]
	mov	DWORD PTR [eax+8], 0
	mov	eax, DWORD PTR _this$[ebp]
	add	esp, 4
	cmp	ebp, esp
	call	__RTC_CheckEsp
	mov	esp, ebp
	pop	ebp
	ret	0
??0?$_Vector_const_iterator@V?$_Vector_val@U?$_Simple_types@PAVFuzzyTerm@@@std@@@std@@@std@@QAE@XZ ENDP ; std::_Vector_const_iterator<std::_Vector_val<std::_Simple_types<FuzzyTerm *> > >::_Vector_const_iterator<std::_Vector_val<std::_Simple_types<FuzzyTerm *> > >
_TEXT	ENDS
; Function compile flags: /Odtp /RTCsu
;	COMDAT ??_GFzOR@@UAEPAXI@Z
_TEXT	SEGMENT
_this$ = -4						; size = 4
___flags$ = 8						; size = 4
??_GFzOR@@UAEPAXI@Z PROC				; FzOR::`scalar deleting destructor', COMDAT
; _this$ = ecx
	push	ebp
	mov	ebp, esp
	push	ecx
	mov	DWORD PTR [ebp-4], -858993460		; ccccccccH
	mov	DWORD PTR _this$[ebp], ecx
	mov	ecx, DWORD PTR _this$[ebp]
	call	??1FzOR@@UAE@XZ				; FzOR::~FzOR
	mov	eax, DWORD PTR ___flags$[ebp]
	and	eax, 1
	je	SHORT $LN2@scalar
	push	20					; 00000014H
	mov	ecx, DWORD PTR _this$[ebp]
	push	ecx
	call	??3@YAXPAXI@Z				; operator delete
	add	esp, 8
$LN2@scalar:
	mov	eax, DWORD PTR _this$[ebp]
	add	esp, 4
	cmp	ebp, esp
	call	__RTC_CheckEsp
	mov	esp, ebp
	pop	ebp
	ret	4
??_GFzOR@@UAEPAXI@Z ENDP				; FzOR::`scalar deleting destructor'
_TEXT	ENDS
; Function compile flags: /Odtp /RTCsu
; File F:\Téléchargements\solution_lab_apprentissage - Copie\Common\fuzzy\FuzzyOperators.h
;	COMDAT ?ORwithDOM@FzOR@@UAEXN@Z
_TEXT	SEGMENT
_this$ = -4						; size = 4
_val$ = 8						; size = 8
?ORwithDOM@FzOR@@UAEXN@Z PROC				; FzOR::ORwithDOM, COMDAT
; _this$ = ecx

; 87   :   void ORwithDOM(double val){assert(0 && "<FzOR::ORwithDOM>: invalid context");}

	push	ebp
	mov	ebp, esp
	push	ecx
	mov	DWORD PTR [ebp-4], -858993460		; ccccccccH
	mov	DWORD PTR _this$[ebp], ecx
	xor	eax, eax
	jne	SHORT $LN1@ORwithDOM
	push	87					; 00000057H
	push	OFFSET ??_C@_1KI@BFAJCJNO@?$AAF?$AA?3?$AA?2?$AAT?$PP?i?$AAl?$PP?i?$AAc?$AAh?$AAa?$AAr?$AAg?$AAe?$AAm?$AAe@
	push	OFFSET ??_C@_1FE@EKNHDPMB@?$AA0?$AA?5?$AA?$CG?$AA?$CG?$AA?5?$AA?$CC?$AA?$DM?$AAF?$AAz?$AAO?$AAR?$AA?3?$AA?3?$AAO?$AAR@
	call	__wassert
	add	esp, 12					; 0000000cH
$LN1@ORwithDOM:
	add	esp, 4
	cmp	ebp, esp
	call	__RTC_CheckEsp
	mov	esp, ebp
	pop	ebp
	ret	8
?ORwithDOM@FzOR@@UAEXN@Z ENDP				; FzOR::ORwithDOM
_TEXT	ENDS
; Function compile flags: /Odtp /RTCsu
; File F:\Téléchargements\solution_lab_apprentissage - Copie\Common\fuzzy\FuzzyOperators.h
;	COMDAT ?ClearDOM@FzOR@@UAEXXZ
_TEXT	SEGMENT
_this$ = -4						; size = 4
?ClearDOM@FzOR@@UAEXXZ PROC				; FzOR::ClearDOM, COMDAT
; _this$ = ecx

; 86   :   void ClearDOM(){assert(0 && "<FzOR::ClearDOM>: invalid context");}

	push	ebp
	mov	ebp, esp
	push	ecx
	mov	DWORD PTR [ebp-4], -858993460		; ccccccccH
	mov	DWORD PTR _this$[ebp], ecx
	xor	eax, eax
	jne	SHORT $LN1@ClearDOM
	push	86					; 00000056H
	push	OFFSET ??_C@_1KI@BFAJCJNO@?$AAF?$AA?3?$AA?2?$AAT?$PP?i?$AAl?$PP?i?$AAc?$AAh?$AAa?$AAr?$AAg?$AAe?$AAm?$AAe@
	push	OFFSET ??_C@_1FC@EJGEACIH@?$AA0?$AA?5?$AA?$CG?$AA?$CG?$AA?5?$AA?$CC?$AA?$DM?$AAF?$AAz?$AAO?$AAR?$AA?3?$AA?3?$AAC?$AAl@
	call	__wassert
	add	esp, 12					; 0000000cH
$LN1@ClearDOM:
	add	esp, 4
	cmp	ebp, esp
	call	__RTC_CheckEsp
	mov	esp, ebp
	pop	ebp
	ret	0
?ClearDOM@FzOR@@UAEXXZ ENDP				; FzOR::ClearDOM
_TEXT	ENDS
; Function compile flags: /Odtp /RTCsu
; File F:\Téléchargements\solution_lab_apprentissage - Copie\Common\fuzzy\FuzzyOperators.cpp
;	COMDAT ?GetDOM@FzOR@@UBENXZ
_TEXT	SEGMENT
tv132 = -108						; size = 4
tv165 = -104						; size = 8
tv91 = -96						; size = 4
tv140 = -92						; size = 4
tv65 = -88						; size = 4
tv138 = -84						; size = 4
$T2 = -80						; size = 8
$T3 = -72						; size = 12
$T4 = -57						; size = 1
$T5 = -56						; size = 12
_curTerm$ = -40						; size = 12
_largest$ = -24						; size = 8
_this$ = -16						; size = 4
__$EHRec$ = -12						; size = 12
?GetDOM@FzOR@@UBENXZ PROC				; FzOR::GetDOM, COMDAT
; _this$ = ecx

; 147  : {

	push	ebp
	mov	ebp, esp
	push	-1
	push	__ehhandler$?GetDOM@FzOR@@UBENXZ
	mov	eax, DWORD PTR fs:0
	push	eax
	sub	esp, 96					; 00000060H
	push	esi
	push	edi
	push	ecx
	lea	edi, DWORD PTR [ebp-108]
	mov	ecx, 24					; 00000018H
	mov	eax, -858993460				; ccccccccH
	rep stosd
	pop	ecx
	mov	eax, DWORD PTR ___security_cookie
	xor	eax, ebp
	push	eax
	lea	eax, DWORD PTR __$EHRec$[ebp]
	mov	DWORD PTR fs:0, eax
	mov	DWORD PTR _this$[ebp], ecx

; 148  :   double largest = MinFloat;

	movsd	xmm0, QWORD PTR __real@3810000000000000
	movsd	QWORD PTR _largest$[ebp], xmm0

; 149  : 
; 150  :   std::vector<FuzzyTerm*>::const_iterator curTerm;

	lea	ecx, DWORD PTR _curTerm$[ebp]
	call	??0?$_Vector_const_iterator@V?$_Vector_val@U?$_Simple_types@PAVFuzzyTerm@@@std@@@std@@@std@@QAE@XZ ; std::_Vector_const_iterator<std::_Vector_val<std::_Simple_types<FuzzyTerm *> > >::_Vector_const_iterator<std::_Vector_val<std::_Simple_types<FuzzyTerm *> > >
	mov	DWORD PTR __$EHRec$[ebp+8], 0

; 151  :   for (curTerm = m_Terms.begin(); curTerm != m_Terms.end(); ++curTerm)

	lea	eax, DWORD PTR $T5[ebp]
	push	eax
	mov	ecx, DWORD PTR _this$[ebp]
	add	ecx, 4
	call	?begin@?$vector@PAVFuzzyTerm@@V?$allocator@PAVFuzzyTerm@@@std@@@std@@QBE?AV?$_Vector_const_iterator@V?$_Vector_val@U?$_Simple_types@PAVFuzzyTerm@@@std@@@std@@@2@XZ ; std::vector<FuzzyTerm *,std::allocator<FuzzyTerm *> >::begin
	mov	DWORD PTR tv138[ebp], eax
	mov	ecx, DWORD PTR tv138[ebp]
	push	ecx
	lea	ecx, DWORD PTR _curTerm$[ebp]
	call	??4?$_Vector_const_iterator@V?$_Vector_val@U?$_Simple_types@PAVFuzzyTerm@@@std@@@std@@@std@@QAEAAV01@$$QAV01@@Z
	lea	ecx, DWORD PTR $T5[ebp]
	call	??1?$_Vector_const_iterator@V?$_Vector_val@U?$_Simple_types@PAVFuzzyTerm@@@std@@@std@@@std@@QAE@XZ
	jmp	SHORT $LN4@GetDOM
$LN2@GetDOM:
	lea	ecx, DWORD PTR _curTerm$[ebp]
	call	??E?$_Vector_const_iterator@V?$_Vector_val@U?$_Simple_types@PAVFuzzyTerm@@@std@@@std@@@std@@QAEAAV01@XZ ; std::_Vector_const_iterator<std::_Vector_val<std::_Simple_types<FuzzyTerm *> > >::operator++
$LN4@GetDOM:
	lea	edx, DWORD PTR $T3[ebp]
	push	edx
	mov	ecx, DWORD PTR _this$[ebp]
	add	ecx, 4
	call	?end@?$vector@PAVFuzzyTerm@@V?$allocator@PAVFuzzyTerm@@@std@@@std@@QBE?AV?$_Vector_const_iterator@V?$_Vector_val@U?$_Simple_types@PAVFuzzyTerm@@@std@@@std@@@2@XZ ; std::vector<FuzzyTerm *,std::allocator<FuzzyTerm *> >::end
	mov	DWORD PTR tv65[ebp], eax
	mov	eax, DWORD PTR tv65[ebp]
	mov	DWORD PTR tv140[ebp], eax
	mov	BYTE PTR __$EHRec$[ebp+8], 1
	mov	ecx, DWORD PTR tv140[ebp]
	push	ecx
	lea	ecx, DWORD PTR _curTerm$[ebp]
	call	??9?$_Vector_const_iterator@V?$_Vector_val@U?$_Simple_types@PAVFuzzyTerm@@@std@@@std@@@std@@QBE_NABV01@@Z ; std::_Vector_const_iterator<std::_Vector_val<std::_Simple_types<FuzzyTerm *> > >::operator!=
	mov	BYTE PTR $T4[ebp], al
	mov	BYTE PTR __$EHRec$[ebp+8], 0
	lea	ecx, DWORD PTR $T3[ebp]
	call	??1?$_Vector_const_iterator@V?$_Vector_val@U?$_Simple_types@PAVFuzzyTerm@@@std@@@std@@@std@@QAE@XZ
	movzx	edx, BYTE PTR $T4[ebp]
	test	edx, edx
	je	SHORT $LN3@GetDOM

; 152  :   {
; 153  :     if ((*curTerm)->GetDOM() > largest)

	lea	ecx, DWORD PTR _curTerm$[ebp]
	call	??D?$_Vector_const_iterator@V?$_Vector_val@U?$_Simple_types@PAVFuzzyTerm@@@std@@@std@@@std@@QBEABQAVFuzzyTerm@@XZ ; std::_Vector_const_iterator<std::_Vector_val<std::_Simple_types<FuzzyTerm *> > >::operator*
	mov	eax, DWORD PTR [eax]
	mov	DWORD PTR tv91[ebp], eax
	mov	ecx, DWORD PTR tv91[ebp]
	mov	edx, DWORD PTR [ecx]
	mov	esi, esp
	mov	ecx, DWORD PTR tv91[ebp]
	mov	eax, DWORD PTR [edx+8]
	call	eax
	cmp	esi, esp
	call	__RTC_CheckEsp
	fstp	QWORD PTR tv165[ebp]
	movsd	xmm0, QWORD PTR tv165[ebp]
	comisd	xmm0, QWORD PTR _largest$[ebp]
	jbe	SHORT $LN5@GetDOM

; 154  :     {
; 155  :       largest = (*curTerm)->GetDOM();

	lea	ecx, DWORD PTR _curTerm$[ebp]
	call	??D?$_Vector_const_iterator@V?$_Vector_val@U?$_Simple_types@PAVFuzzyTerm@@@std@@@std@@@std@@QBEABQAVFuzzyTerm@@XZ ; std::_Vector_const_iterator<std::_Vector_val<std::_Simple_types<FuzzyTerm *> > >::operator*
	mov	ecx, DWORD PTR [eax]
	mov	DWORD PTR tv132[ebp], ecx
	mov	edx, DWORD PTR tv132[ebp]
	mov	eax, DWORD PTR [edx]
	mov	esi, esp
	mov	ecx, DWORD PTR tv132[ebp]
	mov	edx, DWORD PTR [eax+8]
	call	edx
	cmp	esi, esp
	call	__RTC_CheckEsp
	fstp	QWORD PTR _largest$[ebp]
$LN5@GetDOM:

; 156  :     }
; 157  :   }

	jmp	$LN2@GetDOM
$LN3@GetDOM:

; 158  : 
; 159  :   return largest;

	movsd	xmm0, QWORD PTR _largest$[ebp]
	movsd	QWORD PTR $T2[ebp], xmm0
	mov	DWORD PTR __$EHRec$[ebp+8], -1
	lea	ecx, DWORD PTR _curTerm$[ebp]
	call	??1?$_Vector_const_iterator@V?$_Vector_val@U?$_Simple_types@PAVFuzzyTerm@@@std@@@std@@@std@@QAE@XZ
	fld	QWORD PTR $T2[ebp]

; 160  : }

	push	edx
	mov	ecx, ebp
	push	eax
	lea	edx, DWORD PTR $LN13@GetDOM
	call	@_RTC_CheckStackVars@8
	pop	eax
	pop	edx
	mov	ecx, DWORD PTR __$EHRec$[ebp]
	mov	DWORD PTR fs:0, ecx
	pop	ecx
	pop	edi
	pop	esi
	add	esp, 108				; 0000006cH
	cmp	ebp, esp
	call	__RTC_CheckEsp
	mov	esp, ebp
	pop	ebp
	ret	0
	npad	1
$LN13@GetDOM:
	DD	1
	DD	$LN12@GetDOM
$LN12@GetDOM:
	DD	-40					; ffffffd8H
	DD	12					; 0000000cH
	DD	$LN10@GetDOM
$LN10@GetDOM:
	DB	99					; 00000063H
	DB	117					; 00000075H
	DB	114					; 00000072H
	DB	84					; 00000054H
	DB	101					; 00000065H
	DB	114					; 00000072H
	DB	109					; 0000006dH
	DB	0
_TEXT	ENDS
;	COMDAT text$x
text$x	SEGMENT
__unwindfunclet$?GetDOM@FzOR@@UBENXZ$0:
	lea	ecx, DWORD PTR _curTerm$[ebp]
	jmp	??1?$_Vector_const_iterator@V?$_Vector_val@U?$_Simple_types@PAVFuzzyTerm@@@std@@@std@@@std@@QAE@XZ
__unwindfunclet$?GetDOM@FzOR@@UBENXZ$2:
	lea	ecx, DWORD PTR $T3[ebp]
	jmp	??1?$_Vector_const_iterator@V?$_Vector_val@U?$_Simple_types@PAVFuzzyTerm@@@std@@@std@@@std@@QAE@XZ
	int	3
	int	3
	int	3
	int	3
	int	3
__ehhandler$?GetDOM@FzOR@@UBENXZ:
	npad	1
	npad	1
	mov	edx, DWORD PTR [esp+8]
	lea	eax, DWORD PTR [edx+12]
	mov	ecx, DWORD PTR [edx-108]
	xor	ecx, eax
	call	@__security_check_cookie@4
	mov	eax, OFFSET __ehfuncinfo$?GetDOM@FzOR@@UBENXZ
	jmp	___CxxFrameHandler3
text$x	ENDS
?GetDOM@FzOR@@UBENXZ ENDP				; FzOR::GetDOM
; Function compile flags: /Odtp /RTCsu
; File F:\Téléchargements\solution_lab_apprentissage - Copie\Common\fuzzy\FuzzyOperators.h
;	COMDAT ?Clone@FzOR@@UBEPAVFuzzyTerm@@XZ
_TEXT	SEGMENT
tv79 = -28						; size = 4
$T2 = -24						; size = 4
$T3 = -20						; size = 4
_this$ = -16						; size = 4
__$EHRec$ = -12						; size = 12
?Clone@FzOR@@UBEPAVFuzzyTerm@@XZ PROC			; FzOR::Clone, COMDAT
; _this$ = ecx

; 81   :   FuzzyTerm* Clone()const{return new FzOR(*this);}

	push	ebp
	mov	ebp, esp
	push	-1
	push	__ehhandler$?Clone@FzOR@@UBEPAVFuzzyTerm@@XZ
	mov	eax, DWORD PTR fs:0
	push	eax
	sub	esp, 16					; 00000010H
	mov	eax, -858993460				; ccccccccH
	mov	DWORD PTR [ebp-28], eax
	mov	DWORD PTR [ebp-24], eax
	mov	DWORD PTR [ebp-20], eax
	mov	DWORD PTR [ebp-16], eax
	mov	eax, DWORD PTR ___security_cookie
	xor	eax, ebp
	push	eax
	lea	eax, DWORD PTR __$EHRec$[ebp]
	mov	DWORD PTR fs:0, eax
	mov	DWORD PTR _this$[ebp], ecx
	push	20					; 00000014H
	call	??2@YAPAXI@Z				; operator new
	add	esp, 4
	mov	DWORD PTR $T2[ebp], eax
	mov	DWORD PTR __$EHRec$[ebp+8], 0
	cmp	DWORD PTR $T2[ebp], 0
	je	SHORT $LN3@Clone
	mov	eax, DWORD PTR _this$[ebp]
	push	eax
	mov	ecx, DWORD PTR $T2[ebp]
	call	??0FzOR@@QAE@ABV0@@Z			; FzOR::FzOR
	mov	DWORD PTR tv79[ebp], eax
	jmp	SHORT $LN4@Clone
$LN3@Clone:
	mov	DWORD PTR tv79[ebp], 0
$LN4@Clone:
	mov	ecx, DWORD PTR tv79[ebp]
	mov	DWORD PTR $T3[ebp], ecx
	mov	DWORD PTR __$EHRec$[ebp+8], -1
	mov	eax, DWORD PTR $T3[ebp]
	mov	ecx, DWORD PTR __$EHRec$[ebp]
	mov	DWORD PTR fs:0, ecx
	pop	ecx
	add	esp, 28					; 0000001cH
	cmp	ebp, esp
	call	__RTC_CheckEsp
	mov	esp, ebp
	pop	ebp
	ret	0
_TEXT	ENDS
;	COMDAT text$x
text$x	SEGMENT
__unwindfunclet$?Clone@FzOR@@UBEPAVFuzzyTerm@@XZ$0:
	push	20					; 00000014H
	mov	eax, DWORD PTR $T2[ebp]
	push	eax
	call	??3@YAXPAXI@Z				; operator delete
	add	esp, 8
	ret	0
	int	3
	int	3
	int	3
	int	3
	int	3
__ehhandler$?Clone@FzOR@@UBEPAVFuzzyTerm@@XZ:
	npad	1
	npad	1
	mov	edx, DWORD PTR [esp+8]
	lea	eax, DWORD PTR [edx+12]
	mov	ecx, DWORD PTR [edx-20]
	xor	ecx, eax
	call	@__security_check_cookie@4
	mov	eax, OFFSET __ehfuncinfo$?Clone@FzOR@@UBEPAVFuzzyTerm@@XZ
	jmp	___CxxFrameHandler3
text$x	ENDS
?Clone@FzOR@@UBEPAVFuzzyTerm@@XZ ENDP			; FzOR::Clone
; Function compile flags: /Odtp /RTCsu
; File F:\Téléchargements\solution_lab_apprentissage - Copie\Common\fuzzy\FuzzyOperators.cpp
;	COMDAT ??0FzOR@@QAE@AAVFuzzyTerm@@000@Z
_TEXT	SEGMENT
$T2 = -32						; size = 4
$T3 = -28						; size = 4
$T4 = -24						; size = 4
$T5 = -20						; size = 4
_this$ = -16						; size = 4
__$EHRec$ = -12						; size = 12
_op1$ = 8						; size = 4
_op2$ = 12						; size = 4
_op3$ = 16						; size = 4
_op4$ = 20						; size = 4
??0FzOR@@QAE@AAVFuzzyTerm@@000@Z PROC			; FzOR::FzOR, COMDAT
; _this$ = ecx

; 124  : {

	push	ebp
	mov	ebp, esp
	push	-1
	push	__ehhandler$??0FzOR@@QAE@AAVFuzzyTerm@@000@Z
	mov	eax, DWORD PTR fs:0
	push	eax
	sub	esp, 20					; 00000014H
	push	esi
	mov	eax, -858993460				; ccccccccH
	mov	DWORD PTR [ebp-32], eax
	mov	DWORD PTR [ebp-28], eax
	mov	DWORD PTR [ebp-24], eax
	mov	DWORD PTR [ebp-20], eax
	mov	DWORD PTR [ebp-16], eax
	mov	eax, DWORD PTR ___security_cookie
	xor	eax, ebp
	push	eax
	lea	eax, DWORD PTR __$EHRec$[ebp]
	mov	DWORD PTR fs:0, eax
	mov	DWORD PTR _this$[ebp], ecx
	mov	ecx, DWORD PTR _this$[ebp]
	call	??0FuzzyTerm@@QAE@XZ
	mov	DWORD PTR __$EHRec$[ebp+8], 0
	mov	eax, DWORD PTR _this$[ebp]
	mov	DWORD PTR [eax], OFFSET ??_7FzOR@@6B@
	mov	ecx, DWORD PTR _this$[ebp]
	add	ecx, 4
	call	??0?$vector@PAVFuzzyTerm@@V?$allocator@PAVFuzzyTerm@@@std@@@std@@QAE@XZ ; std::vector<FuzzyTerm *,std::allocator<FuzzyTerm *> >::vector<FuzzyTerm *,std::allocator<FuzzyTerm *> >
	mov	BYTE PTR __$EHRec$[ebp+8], 1

; 125  :    m_Terms.push_back(op1.Clone());

	mov	ecx, DWORD PTR _op1$[ebp]
	mov	edx, DWORD PTR [ecx]
	mov	esi, esp
	mov	ecx, DWORD PTR _op1$[ebp]
	mov	eax, DWORD PTR [edx+4]
	call	eax
	cmp	esi, esp
	call	__RTC_CheckEsp
	mov	DWORD PTR $T5[ebp], eax
	lea	ecx, DWORD PTR $T5[ebp]
	push	ecx
	mov	ecx, DWORD PTR _this$[ebp]
	add	ecx, 4
	call	?push_back@?$vector@PAVFuzzyTerm@@V?$allocator@PAVFuzzyTerm@@@std@@@std@@QAEX$$QAPAVFuzzyTerm@@@Z ; std::vector<FuzzyTerm *,std::allocator<FuzzyTerm *> >::push_back

; 126  :    m_Terms.push_back(op2.Clone());

	mov	edx, DWORD PTR _op2$[ebp]
	mov	eax, DWORD PTR [edx]
	mov	esi, esp
	mov	ecx, DWORD PTR _op2$[ebp]
	mov	edx, DWORD PTR [eax+4]
	call	edx
	cmp	esi, esp
	call	__RTC_CheckEsp
	mov	DWORD PTR $T4[ebp], eax
	lea	eax, DWORD PTR $T4[ebp]
	push	eax
	mov	ecx, DWORD PTR _this$[ebp]
	add	ecx, 4
	call	?push_back@?$vector@PAVFuzzyTerm@@V?$allocator@PAVFuzzyTerm@@@std@@@std@@QAEX$$QAPAVFuzzyTerm@@@Z ; std::vector<FuzzyTerm *,std::allocator<FuzzyTerm *> >::push_back

; 127  :    m_Terms.push_back(op3.Clone());

	mov	ecx, DWORD PTR _op3$[ebp]
	mov	edx, DWORD PTR [ecx]
	mov	esi, esp
	mov	ecx, DWORD PTR _op3$[ebp]
	mov	eax, DWORD PTR [edx+4]
	call	eax
	cmp	esi, esp
	call	__RTC_CheckEsp
	mov	DWORD PTR $T3[ebp], eax
	lea	ecx, DWORD PTR $T3[ebp]
	push	ecx
	mov	ecx, DWORD PTR _this$[ebp]
	add	ecx, 4
	call	?push_back@?$vector@PAVFuzzyTerm@@V?$allocator@PAVFuzzyTerm@@@std@@@std@@QAEX$$QAPAVFuzzyTerm@@@Z ; std::vector<FuzzyTerm *,std::allocator<FuzzyTerm *> >::push_back

; 128  :    m_Terms.push_back(op4.Clone());

	mov	edx, DWORD PTR _op4$[ebp]
	mov	eax, DWORD PTR [edx]
	mov	esi, esp
	mov	ecx, DWORD PTR _op4$[ebp]
	mov	edx, DWORD PTR [eax+4]
	call	edx
	cmp	esi, esp
	call	__RTC_CheckEsp
	mov	DWORD PTR $T2[ebp], eax
	lea	eax, DWORD PTR $T2[ebp]
	push	eax
	mov	ecx, DWORD PTR _this$[ebp]
	add	ecx, 4
	call	?push_back@?$vector@PAVFuzzyTerm@@V?$allocator@PAVFuzzyTerm@@@std@@@std@@QAEX$$QAPAVFuzzyTerm@@@Z ; std::vector<FuzzyTerm *,std::allocator<FuzzyTerm *> >::push_back

; 129  : }

	mov	DWORD PTR __$EHRec$[ebp+8], -1
	mov	eax, DWORD PTR _this$[ebp]
	mov	ecx, DWORD PTR __$EHRec$[ebp]
	mov	DWORD PTR fs:0, ecx
	pop	ecx
	pop	esi
	add	esp, 32					; 00000020H
	cmp	ebp, esp
	call	__RTC_CheckEsp
	mov	esp, ebp
	pop	ebp
	ret	16					; 00000010H
_TEXT	ENDS
;	COMDAT text$x
text$x	SEGMENT
__unwindfunclet$??0FzOR@@QAE@AAVFuzzyTerm@@000@Z$0:
	mov	ecx, DWORD PTR _this$[ebp]
	jmp	??1FuzzyTerm@@UAE@XZ			; FuzzyTerm::~FuzzyTerm
__unwindfunclet$??0FzOR@@QAE@AAVFuzzyTerm@@000@Z$1:
	mov	ecx, DWORD PTR _this$[ebp]
	add	ecx, 4
	jmp	??1?$vector@PAVFuzzyTerm@@V?$allocator@PAVFuzzyTerm@@@std@@@std@@QAE@XZ ; std::vector<FuzzyTerm *,std::allocator<FuzzyTerm *> >::~vector<FuzzyTerm *,std::allocator<FuzzyTerm *> >
	int	3
	int	3
	int	3
	int	3
	int	3
__ehhandler$??0FzOR@@QAE@AAVFuzzyTerm@@000@Z:
	npad	1
	npad	1
	mov	edx, DWORD PTR [esp+8]
	lea	eax, DWORD PTR [edx+12]
	mov	ecx, DWORD PTR [edx-28]
	xor	ecx, eax
	call	@__security_check_cookie@4
	mov	eax, OFFSET __ehfuncinfo$??0FzOR@@QAE@AAVFuzzyTerm@@000@Z
	jmp	___CxxFrameHandler3
text$x	ENDS
??0FzOR@@QAE@AAVFuzzyTerm@@000@Z ENDP			; FzOR::FzOR
; Function compile flags: /Odtp /RTCsu
; File F:\Téléchargements\solution_lab_apprentissage - Copie\Common\fuzzy\FuzzyOperators.cpp
;	COMDAT ??0FzOR@@QAE@AAVFuzzyTerm@@00@Z
_TEXT	SEGMENT
$T2 = -28						; size = 4
$T3 = -24						; size = 4
$T4 = -20						; size = 4
_this$ = -16						; size = 4
__$EHRec$ = -12						; size = 12
_op1$ = 8						; size = 4
_op2$ = 12						; size = 4
_op3$ = 16						; size = 4
??0FzOR@@QAE@AAVFuzzyTerm@@00@Z PROC			; FzOR::FzOR, COMDAT
; _this$ = ecx

; 116  : {

	push	ebp
	mov	ebp, esp
	push	-1
	push	__ehhandler$??0FzOR@@QAE@AAVFuzzyTerm@@00@Z
	mov	eax, DWORD PTR fs:0
	push	eax
	sub	esp, 16					; 00000010H
	push	esi
	mov	eax, -858993460				; ccccccccH
	mov	DWORD PTR [ebp-28], eax
	mov	DWORD PTR [ebp-24], eax
	mov	DWORD PTR [ebp-20], eax
	mov	DWORD PTR [ebp-16], eax
	mov	eax, DWORD PTR ___security_cookie
	xor	eax, ebp
	push	eax
	lea	eax, DWORD PTR __$EHRec$[ebp]
	mov	DWORD PTR fs:0, eax
	mov	DWORD PTR _this$[ebp], ecx
	mov	ecx, DWORD PTR _this$[ebp]
	call	??0FuzzyTerm@@QAE@XZ
	mov	DWORD PTR __$EHRec$[ebp+8], 0
	mov	eax, DWORD PTR _this$[ebp]
	mov	DWORD PTR [eax], OFFSET ??_7FzOR@@6B@
	mov	ecx, DWORD PTR _this$[ebp]
	add	ecx, 4
	call	??0?$vector@PAVFuzzyTerm@@V?$allocator@PAVFuzzyTerm@@@std@@@std@@QAE@XZ ; std::vector<FuzzyTerm *,std::allocator<FuzzyTerm *> >::vector<FuzzyTerm *,std::allocator<FuzzyTerm *> >
	mov	BYTE PTR __$EHRec$[ebp+8], 1

; 117  :    m_Terms.push_back(op1.Clone());

	mov	ecx, DWORD PTR _op1$[ebp]
	mov	edx, DWORD PTR [ecx]
	mov	esi, esp
	mov	ecx, DWORD PTR _op1$[ebp]
	mov	eax, DWORD PTR [edx+4]
	call	eax
	cmp	esi, esp
	call	__RTC_CheckEsp
	mov	DWORD PTR $T4[ebp], eax
	lea	ecx, DWORD PTR $T4[ebp]
	push	ecx
	mov	ecx, DWORD PTR _this$[ebp]
	add	ecx, 4
	call	?push_back@?$vector@PAVFuzzyTerm@@V?$allocator@PAVFuzzyTerm@@@std@@@std@@QAEX$$QAPAVFuzzyTerm@@@Z ; std::vector<FuzzyTerm *,std::allocator<FuzzyTerm *> >::push_back

; 118  :    m_Terms.push_back(op2.Clone());

	mov	edx, DWORD PTR _op2$[ebp]
	mov	eax, DWORD PTR [edx]
	mov	esi, esp
	mov	ecx, DWORD PTR _op2$[ebp]
	mov	edx, DWORD PTR [eax+4]
	call	edx
	cmp	esi, esp
	call	__RTC_CheckEsp
	mov	DWORD PTR $T3[ebp], eax
	lea	eax, DWORD PTR $T3[ebp]
	push	eax
	mov	ecx, DWORD PTR _this$[ebp]
	add	ecx, 4
	call	?push_back@?$vector@PAVFuzzyTerm@@V?$allocator@PAVFuzzyTerm@@@std@@@std@@QAEX$$QAPAVFuzzyTerm@@@Z ; std::vector<FuzzyTerm *,std::allocator<FuzzyTerm *> >::push_back

; 119  :    m_Terms.push_back(op3.Clone());

	mov	ecx, DWORD PTR _op3$[ebp]
	mov	edx, DWORD PTR [ecx]
	mov	esi, esp
	mov	ecx, DWORD PTR _op3$[ebp]
	mov	eax, DWORD PTR [edx+4]
	call	eax
	cmp	esi, esp
	call	__RTC_CheckEsp
	mov	DWORD PTR $T2[ebp], eax
	lea	ecx, DWORD PTR $T2[ebp]
	push	ecx
	mov	ecx, DWORD PTR _this$[ebp]
	add	ecx, 4
	call	?push_back@?$vector@PAVFuzzyTerm@@V?$allocator@PAVFuzzyTerm@@@std@@@std@@QAEX$$QAPAVFuzzyTerm@@@Z ; std::vector<FuzzyTerm *,std::allocator<FuzzyTerm *> >::push_back

; 120  : }

	mov	DWORD PTR __$EHRec$[ebp+8], -1
	mov	eax, DWORD PTR _this$[ebp]
	mov	ecx, DWORD PTR __$EHRec$[ebp]
	mov	DWORD PTR fs:0, ecx
	pop	ecx
	pop	esi
	add	esp, 28					; 0000001cH
	cmp	ebp, esp
	call	__RTC_CheckEsp
	mov	esp, ebp
	pop	ebp
	ret	12					; 0000000cH
_TEXT	ENDS
;	COMDAT text$x
text$x	SEGMENT
__unwindfunclet$??0FzOR@@QAE@AAVFuzzyTerm@@00@Z$0:
	mov	ecx, DWORD PTR _this$[ebp]
	jmp	??1FuzzyTerm@@UAE@XZ			; FuzzyTerm::~FuzzyTerm
__unwindfunclet$??0FzOR@@QAE@AAVFuzzyTerm@@00@Z$1:
	mov	ecx, DWORD PTR _this$[ebp]
	add	ecx, 4
	jmp	??1?$vector@PAVFuzzyTerm@@V?$allocator@PAVFuzzyTerm@@@std@@@std@@QAE@XZ ; std::vector<FuzzyTerm *,std::allocator<FuzzyTerm *> >::~vector<FuzzyTerm *,std::allocator<FuzzyTerm *> >
	int	3
	int	3
	int	3
	int	3
	int	3
__ehhandler$??0FzOR@@QAE@AAVFuzzyTerm@@00@Z:
	npad	1
	npad	1
	mov	edx, DWORD PTR [esp+8]
	lea	eax, DWORD PTR [edx+12]
	mov	ecx, DWORD PTR [edx-24]
	xor	ecx, eax
	call	@__security_check_cookie@4
	mov	eax, OFFSET __ehfuncinfo$??0FzOR@@QAE@AAVFuzzyTerm@@00@Z
	jmp	___CxxFrameHandler3
text$x	ENDS
??0FzOR@@QAE@AAVFuzzyTerm@@00@Z ENDP			; FzOR::FzOR
; Function compile flags: /Odtp /RTCsu
; File F:\Téléchargements\solution_lab_apprentissage - Copie\Common\fuzzy\FuzzyOperators.cpp
;	COMDAT ??0FzOR@@QAE@AAVFuzzyTerm@@0@Z
_TEXT	SEGMENT
$T2 = -24						; size = 4
$T3 = -20						; size = 4
_this$ = -16						; size = 4
__$EHRec$ = -12						; size = 12
_op1$ = 8						; size = 4
_op2$ = 12						; size = 4
??0FzOR@@QAE@AAVFuzzyTerm@@0@Z PROC			; FzOR::FzOR, COMDAT
; _this$ = ecx

; 109  : {

	push	ebp
	mov	ebp, esp
	push	-1
	push	__ehhandler$??0FzOR@@QAE@AAVFuzzyTerm@@0@Z
	mov	eax, DWORD PTR fs:0
	push	eax
	sub	esp, 12					; 0000000cH
	push	esi
	mov	DWORD PTR [ebp-24], -858993460		; ccccccccH
	mov	DWORD PTR [ebp-20], -858993460		; ccccccccH
	mov	DWORD PTR [ebp-16], -858993460		; ccccccccH
	mov	eax, DWORD PTR ___security_cookie
	xor	eax, ebp
	push	eax
	lea	eax, DWORD PTR __$EHRec$[ebp]
	mov	DWORD PTR fs:0, eax
	mov	DWORD PTR _this$[ebp], ecx
	mov	ecx, DWORD PTR _this$[ebp]
	call	??0FuzzyTerm@@QAE@XZ
	mov	DWORD PTR __$EHRec$[ebp+8], 0
	mov	eax, DWORD PTR _this$[ebp]
	mov	DWORD PTR [eax], OFFSET ??_7FzOR@@6B@
	mov	ecx, DWORD PTR _this$[ebp]
	add	ecx, 4
	call	??0?$vector@PAVFuzzyTerm@@V?$allocator@PAVFuzzyTerm@@@std@@@std@@QAE@XZ ; std::vector<FuzzyTerm *,std::allocator<FuzzyTerm *> >::vector<FuzzyTerm *,std::allocator<FuzzyTerm *> >
	mov	BYTE PTR __$EHRec$[ebp+8], 1

; 110  :    m_Terms.push_back(op1.Clone());

	mov	ecx, DWORD PTR _op1$[ebp]
	mov	edx, DWORD PTR [ecx]
	mov	esi, esp
	mov	ecx, DWORD PTR _op1$[ebp]
	mov	eax, DWORD PTR [edx+4]
	call	eax
	cmp	esi, esp
	call	__RTC_CheckEsp
	mov	DWORD PTR $T3[ebp], eax
	lea	ecx, DWORD PTR $T3[ebp]
	push	ecx
	mov	ecx, DWORD PTR _this$[ebp]
	add	ecx, 4
	call	?push_back@?$vector@PAVFuzzyTerm@@V?$allocator@PAVFuzzyTerm@@@std@@@std@@QAEX$$QAPAVFuzzyTerm@@@Z ; std::vector<FuzzyTerm *,std::allocator<FuzzyTerm *> >::push_back

; 111  :    m_Terms.push_back(op2.Clone());

	mov	edx, DWORD PTR _op2$[ebp]
	mov	eax, DWORD PTR [edx]
	mov	esi, esp
	mov	ecx, DWORD PTR _op2$[ebp]
	mov	edx, DWORD PTR [eax+4]
	call	edx
	cmp	esi, esp
	call	__RTC_CheckEsp
	mov	DWORD PTR $T2[ebp], eax
	lea	eax, DWORD PTR $T2[ebp]
	push	eax
	mov	ecx, DWORD PTR _this$[ebp]
	add	ecx, 4
	call	?push_back@?$vector@PAVFuzzyTerm@@V?$allocator@PAVFuzzyTerm@@@std@@@std@@QAEX$$QAPAVFuzzyTerm@@@Z ; std::vector<FuzzyTerm *,std::allocator<FuzzyTerm *> >::push_back

; 112  : }

	mov	DWORD PTR __$EHRec$[ebp+8], -1
	mov	eax, DWORD PTR _this$[ebp]
	mov	ecx, DWORD PTR __$EHRec$[ebp]
	mov	DWORD PTR fs:0, ecx
	pop	ecx
	pop	esi
	add	esp, 24					; 00000018H
	cmp	ebp, esp
	call	__RTC_CheckEsp
	mov	esp, ebp
	pop	ebp
	ret	8
_TEXT	ENDS
;	COMDAT text$x
text$x	SEGMENT
__unwindfunclet$??0FzOR@@QAE@AAVFuzzyTerm@@0@Z$0:
	mov	ecx, DWORD PTR _this$[ebp]
	jmp	??1FuzzyTerm@@UAE@XZ			; FuzzyTerm::~FuzzyTerm
__unwindfunclet$??0FzOR@@QAE@AAVFuzzyTerm@@0@Z$1:
	mov	ecx, DWORD PTR _this$[ebp]
	add	ecx, 4
	jmp	??1?$vector@PAVFuzzyTerm@@V?$allocator@PAVFuzzyTerm@@@std@@@std@@QAE@XZ ; std::vector<FuzzyTerm *,std::allocator<FuzzyTerm *> >::~vector<FuzzyTerm *,std::allocator<FuzzyTerm *> >
	int	3
	int	3
	int	3
	int	3
	int	3
__ehhandler$??0FzOR@@QAE@AAVFuzzyTerm@@0@Z:
	npad	1
	npad	1
	mov	edx, DWORD PTR [esp+8]
	lea	eax, DWORD PTR [edx+12]
	mov	ecx, DWORD PTR [edx-20]
	xor	ecx, eax
	call	@__security_check_cookie@4
	mov	eax, OFFSET __ehfuncinfo$??0FzOR@@QAE@AAVFuzzyTerm@@0@Z
	jmp	___CxxFrameHandler3
text$x	ENDS
??0FzOR@@QAE@AAVFuzzyTerm@@0@Z ENDP			; FzOR::FzOR
; Function compile flags: /Odtp /RTCsu
; File F:\Téléchargements\solution_lab_apprentissage - Copie\Common\fuzzy\FuzzyOperators.cpp
;	COMDAT ??0FzOR@@QAE@ABV0@@Z
_TEXT	SEGMENT
tv146 = -84						; size = 4
tv158 = -80						; size = 4
tv86 = -76						; size = 4
tv156 = -72						; size = 4
$T2 = -68						; size = 4
$T3 = -64						; size = 12
$T4 = -49						; size = 1
$T5 = -48						; size = 12
_curTerm$ = -32						; size = 12
_this$ = -16						; size = 4
__$EHRec$ = -12						; size = 12
_fa$ = 8						; size = 4
??0FzOR@@QAE@ABV0@@Z PROC				; FzOR::FzOR, COMDAT
; _this$ = ecx

; 99   : {

	push	ebp
	mov	ebp, esp
	push	-1
	push	__ehhandler$??0FzOR@@QAE@ABV0@@Z
	mov	eax, DWORD PTR fs:0
	push	eax
	sub	esp, 72					; 00000048H
	push	esi
	push	edi
	push	ecx
	lea	edi, DWORD PTR [ebp-84]
	mov	ecx, 18					; 00000012H
	mov	eax, -858993460				; ccccccccH
	rep stosd
	pop	ecx
	mov	eax, DWORD PTR ___security_cookie
	xor	eax, ebp
	push	eax
	lea	eax, DWORD PTR __$EHRec$[ebp]
	mov	DWORD PTR fs:0, eax
	mov	DWORD PTR _this$[ebp], ecx
	mov	ecx, DWORD PTR _this$[ebp]
	call	??0FuzzyTerm@@QAE@XZ
	mov	DWORD PTR __$EHRec$[ebp+8], 0
	mov	eax, DWORD PTR _this$[ebp]
	mov	DWORD PTR [eax], OFFSET ??_7FzOR@@6B@
	mov	ecx, DWORD PTR _this$[ebp]
	add	ecx, 4
	call	??0?$vector@PAVFuzzyTerm@@V?$allocator@PAVFuzzyTerm@@@std@@@std@@QAE@XZ ; std::vector<FuzzyTerm *,std::allocator<FuzzyTerm *> >::vector<FuzzyTerm *,std::allocator<FuzzyTerm *> >
	mov	BYTE PTR __$EHRec$[ebp+8], 1

; 100  :    std::vector<FuzzyTerm*>::const_iterator curTerm;

	lea	ecx, DWORD PTR _curTerm$[ebp]
	call	??0?$_Vector_const_iterator@V?$_Vector_val@U?$_Simple_types@PAVFuzzyTerm@@@std@@@std@@@std@@QAE@XZ ; std::_Vector_const_iterator<std::_Vector_val<std::_Simple_types<FuzzyTerm *> > >::_Vector_const_iterator<std::_Vector_val<std::_Simple_types<FuzzyTerm *> > >
	mov	BYTE PTR __$EHRec$[ebp+8], 2

; 101  :    for (curTerm = fa.m_Terms.begin(); curTerm != fa.m_Terms.end(); ++curTerm)

	lea	ecx, DWORD PTR $T5[ebp]
	push	ecx
	mov	ecx, DWORD PTR _fa$[ebp]
	add	ecx, 4
	call	?begin@?$vector@PAVFuzzyTerm@@V?$allocator@PAVFuzzyTerm@@@std@@@std@@QBE?AV?$_Vector_const_iterator@V?$_Vector_val@U?$_Simple_types@PAVFuzzyTerm@@@std@@@std@@@2@XZ ; std::vector<FuzzyTerm *,std::allocator<FuzzyTerm *> >::begin
	mov	DWORD PTR tv156[ebp], eax
	mov	edx, DWORD PTR tv156[ebp]
	push	edx
	lea	ecx, DWORD PTR _curTerm$[ebp]
	call	??4?$_Vector_const_iterator@V?$_Vector_val@U?$_Simple_types@PAVFuzzyTerm@@@std@@@std@@@std@@QAEAAV01@$$QAV01@@Z
	lea	ecx, DWORD PTR $T5[ebp]
	call	??1?$_Vector_const_iterator@V?$_Vector_val@U?$_Simple_types@PAVFuzzyTerm@@@std@@@std@@@std@@QAE@XZ
	jmp	SHORT $LN4@FzOR
$LN2@FzOR:
	lea	ecx, DWORD PTR _curTerm$[ebp]
	call	??E?$_Vector_const_iterator@V?$_Vector_val@U?$_Simple_types@PAVFuzzyTerm@@@std@@@std@@@std@@QAEAAV01@XZ ; std::_Vector_const_iterator<std::_Vector_val<std::_Simple_types<FuzzyTerm *> > >::operator++
$LN4@FzOR:
	lea	eax, DWORD PTR $T3[ebp]
	push	eax
	mov	ecx, DWORD PTR _fa$[ebp]
	add	ecx, 4
	call	?end@?$vector@PAVFuzzyTerm@@V?$allocator@PAVFuzzyTerm@@@std@@@std@@QBE?AV?$_Vector_const_iterator@V?$_Vector_val@U?$_Simple_types@PAVFuzzyTerm@@@std@@@std@@@2@XZ ; std::vector<FuzzyTerm *,std::allocator<FuzzyTerm *> >::end
	mov	DWORD PTR tv86[ebp], eax
	mov	ecx, DWORD PTR tv86[ebp]
	mov	DWORD PTR tv158[ebp], ecx
	mov	BYTE PTR __$EHRec$[ebp+8], 3
	mov	edx, DWORD PTR tv158[ebp]
	push	edx
	lea	ecx, DWORD PTR _curTerm$[ebp]
	call	??9?$_Vector_const_iterator@V?$_Vector_val@U?$_Simple_types@PAVFuzzyTerm@@@std@@@std@@@std@@QBE_NABV01@@Z ; std::_Vector_const_iterator<std::_Vector_val<std::_Simple_types<FuzzyTerm *> > >::operator!=
	mov	BYTE PTR $T4[ebp], al
	mov	BYTE PTR __$EHRec$[ebp+8], 2
	lea	ecx, DWORD PTR $T3[ebp]
	call	??1?$_Vector_const_iterator@V?$_Vector_val@U?$_Simple_types@PAVFuzzyTerm@@@std@@@std@@@std@@QAE@XZ
	movzx	eax, BYTE PTR $T4[ebp]
	test	eax, eax
	je	SHORT $LN3@FzOR

; 102  :    {
; 103  :      m_Terms.push_back((*curTerm)->Clone());

	lea	ecx, DWORD PTR _curTerm$[ebp]
	call	??D?$_Vector_const_iterator@V?$_Vector_val@U?$_Simple_types@PAVFuzzyTerm@@@std@@@std@@@std@@QBEABQAVFuzzyTerm@@XZ ; std::_Vector_const_iterator<std::_Vector_val<std::_Simple_types<FuzzyTerm *> > >::operator*
	mov	ecx, DWORD PTR [eax]
	mov	DWORD PTR tv146[ebp], ecx
	mov	edx, DWORD PTR tv146[ebp]
	mov	eax, DWORD PTR [edx]
	mov	esi, esp
	mov	ecx, DWORD PTR tv146[ebp]
	mov	edx, DWORD PTR [eax+4]
	call	edx
	cmp	esi, esp
	call	__RTC_CheckEsp
	mov	DWORD PTR $T2[ebp], eax
	lea	eax, DWORD PTR $T2[ebp]
	push	eax
	mov	ecx, DWORD PTR _this$[ebp]
	add	ecx, 4
	call	?push_back@?$vector@PAVFuzzyTerm@@V?$allocator@PAVFuzzyTerm@@@std@@@std@@QAEX$$QAPAVFuzzyTerm@@@Z ; std::vector<FuzzyTerm *,std::allocator<FuzzyTerm *> >::push_back

; 104  :    }

	jmp	SHORT $LN2@FzOR
$LN3@FzOR:

; 105  : }

	mov	BYTE PTR __$EHRec$[ebp+8], 1
	lea	ecx, DWORD PTR _curTerm$[ebp]
	call	??1?$_Vector_const_iterator@V?$_Vector_val@U?$_Simple_types@PAVFuzzyTerm@@@std@@@std@@@std@@QAE@XZ
	mov	DWORD PTR __$EHRec$[ebp+8], -1
	mov	eax, DWORD PTR _this$[ebp]
	push	edx
	mov	ecx, ebp
	push	eax
	lea	edx, DWORD PTR $LN14@FzOR
	call	@_RTC_CheckStackVars@8
	pop	eax
	pop	edx
	mov	ecx, DWORD PTR __$EHRec$[ebp]
	mov	DWORD PTR fs:0, ecx
	pop	ecx
	pop	edi
	pop	esi
	add	esp, 84					; 00000054H
	cmp	ebp, esp
	call	__RTC_CheckEsp
	mov	esp, ebp
	pop	ebp
	ret	4
$LN14@FzOR:
	DD	1
	DD	$LN13@FzOR
$LN13@FzOR:
	DD	-32					; ffffffe0H
	DD	12					; 0000000cH
	DD	$LN11@FzOR
$LN11@FzOR:
	DB	99					; 00000063H
	DB	117					; 00000075H
	DB	114					; 00000072H
	DB	84					; 00000054H
	DB	101					; 00000065H
	DB	114					; 00000072H
	DB	109					; 0000006dH
	DB	0
_TEXT	ENDS
;	COMDAT text$x
text$x	SEGMENT
__unwindfunclet$??0FzOR@@QAE@ABV0@@Z$0:
	mov	ecx, DWORD PTR _this$[ebp]
	jmp	??1FuzzyTerm@@UAE@XZ			; FuzzyTerm::~FuzzyTerm
__unwindfunclet$??0FzOR@@QAE@ABV0@@Z$1:
	mov	ecx, DWORD PTR _this$[ebp]
	add	ecx, 4
	jmp	??1?$vector@PAVFuzzyTerm@@V?$allocator@PAVFuzzyTerm@@@std@@@std@@QAE@XZ ; std::vector<FuzzyTerm *,std::allocator<FuzzyTerm *> >::~vector<FuzzyTerm *,std::allocator<FuzzyTerm *> >
__unwindfunclet$??0FzOR@@QAE@ABV0@@Z$2:
	lea	ecx, DWORD PTR _curTerm$[ebp]
	jmp	??1?$_Vector_const_iterator@V?$_Vector_val@U?$_Simple_types@PAVFuzzyTerm@@@std@@@std@@@std@@QAE@XZ
__unwindfunclet$??0FzOR@@QAE@ABV0@@Z$4:
	lea	ecx, DWORD PTR $T3[ebp]
	jmp	??1?$_Vector_const_iterator@V?$_Vector_val@U?$_Simple_types@PAVFuzzyTerm@@@std@@@std@@@std@@QAE@XZ
	int	3
	int	3
	int	3
	int	3
	int	3
__ehhandler$??0FzOR@@QAE@ABV0@@Z:
	npad	1
	npad	1
	mov	edx, DWORD PTR [esp+8]
	lea	eax, DWORD PTR [edx+12]
	mov	ecx, DWORD PTR [edx-84]
	xor	ecx, eax
	call	@__security_check_cookie@4
	mov	eax, OFFSET __ehfuncinfo$??0FzOR@@QAE@ABV0@@Z
	jmp	___CxxFrameHandler3
text$x	ENDS
??0FzOR@@QAE@ABV0@@Z ENDP				; FzOR::FzOR
; Function compile flags: /Odtp /RTCsu
; File F:\Téléchargements\solution_lab_apprentissage - Copie\Common\fuzzy\FuzzyOperators.cpp
;	COMDAT ??1FzOR@@UAE@XZ
_TEXT	SEGMENT
tv147 = -72						; size = 4
$T2 = -68						; size = 4
$T3 = -64						; size = 12
$T4 = -49						; size = 1
$T5 = -48						; size = 12
_curTerm$ = -32						; size = 12
_this$ = -16						; size = 4
__$EHRec$ = -12						; size = 12
??1FzOR@@UAE@XZ PROC					; FzOR::~FzOR, COMDAT
; _this$ = ecx

; 133  : {

	push	ebp
	mov	ebp, esp
	push	-1
	push	__ehhandler$??1FzOR@@UAE@XZ
	mov	eax, DWORD PTR fs:0
	push	eax
	sub	esp, 60					; 0000003cH
	push	esi
	push	edi
	push	ecx
	lea	edi, DWORD PTR [ebp-72]
	mov	ecx, 15					; 0000000fH
	mov	eax, -858993460				; ccccccccH
	rep stosd
	pop	ecx
	mov	eax, DWORD PTR ___security_cookie
	xor	eax, ebp
	push	eax
	lea	eax, DWORD PTR __$EHRec$[ebp]
	mov	DWORD PTR fs:0, eax
	mov	DWORD PTR _this$[ebp], ecx
	mov	eax, DWORD PTR _this$[ebp]
	mov	DWORD PTR [eax], OFFSET ??_7FzOR@@6B@

; 134  :   std::vector<FuzzyTerm*>::iterator curTerm;

	lea	ecx, DWORD PTR _curTerm$[ebp]
	call	??0?$_Vector_iterator@V?$_Vector_val@U?$_Simple_types@PAVFuzzyTerm@@@std@@@std@@@std@@QAE@XZ

; 135  :   for (curTerm = m_Terms.begin(); curTerm != m_Terms.end(); ++curTerm)

	lea	ecx, DWORD PTR $T5[ebp]
	push	ecx
	mov	ecx, DWORD PTR _this$[ebp]
	add	ecx, 4
	call	?begin@?$vector@PAVFuzzyTerm@@V?$allocator@PAVFuzzyTerm@@@std@@@std@@QAE?AV?$_Vector_iterator@V?$_Vector_val@U?$_Simple_types@PAVFuzzyTerm@@@std@@@std@@@2@XZ ; std::vector<FuzzyTerm *,std::allocator<FuzzyTerm *> >::begin
	push	eax
	lea	ecx, DWORD PTR _curTerm$[ebp]
	call	??4?$_Vector_iterator@V?$_Vector_val@U?$_Simple_types@PAVFuzzyTerm@@@std@@@std@@@std@@QAEAAV01@$$QAV01@@Z
	lea	ecx, DWORD PTR $T5[ebp]
	call	??1?$_Vector_iterator@V?$_Vector_val@U?$_Simple_types@PAVFuzzyTerm@@@std@@@std@@@std@@QAE@XZ
	jmp	SHORT $LN4@FzOR
$LN2@FzOR:
	lea	ecx, DWORD PTR _curTerm$[ebp]
	call	??E?$_Vector_iterator@V?$_Vector_val@U?$_Simple_types@PAVFuzzyTerm@@@std@@@std@@@std@@QAEAAV01@XZ ; std::_Vector_iterator<std::_Vector_val<std::_Simple_types<FuzzyTerm *> > >::operator++
$LN4@FzOR:
	lea	edx, DWORD PTR $T3[ebp]
	push	edx
	mov	ecx, DWORD PTR _this$[ebp]
	add	ecx, 4
	call	?end@?$vector@PAVFuzzyTerm@@V?$allocator@PAVFuzzyTerm@@@std@@@std@@QAE?AV?$_Vector_iterator@V?$_Vector_val@U?$_Simple_types@PAVFuzzyTerm@@@std@@@std@@@2@XZ ; std::vector<FuzzyTerm *,std::allocator<FuzzyTerm *> >::end
	push	eax
	lea	ecx, DWORD PTR _curTerm$[ebp]
	call	??9?$_Vector_const_iterator@V?$_Vector_val@U?$_Simple_types@PAVFuzzyTerm@@@std@@@std@@@std@@QBE_NABV01@@Z ; std::_Vector_const_iterator<std::_Vector_val<std::_Simple_types<FuzzyTerm *> > >::operator!=
	mov	BYTE PTR $T4[ebp], al
	lea	ecx, DWORD PTR $T3[ebp]
	call	??1?$_Vector_iterator@V?$_Vector_val@U?$_Simple_types@PAVFuzzyTerm@@@std@@@std@@@std@@QAE@XZ
	movzx	eax, BYTE PTR $T4[ebp]
	test	eax, eax
	je	SHORT $LN3@FzOR

; 136  :   {
; 137  :     delete *curTerm;

	lea	ecx, DWORD PTR _curTerm$[ebp]
	call	??D?$_Vector_iterator@V?$_Vector_val@U?$_Simple_types@PAVFuzzyTerm@@@std@@@std@@@std@@QBEAAPAVFuzzyTerm@@XZ ; std::_Vector_iterator<std::_Vector_val<std::_Simple_types<FuzzyTerm *> > >::operator*
	mov	ecx, DWORD PTR [eax]
	mov	DWORD PTR $T2[ebp], ecx
	cmp	DWORD PTR $T2[ebp], 0
	je	SHORT $LN6@FzOR
	mov	esi, esp
	push	1
	mov	edx, DWORD PTR $T2[ebp]
	mov	eax, DWORD PTR [edx]
	mov	ecx, DWORD PTR $T2[ebp]
	mov	edx, DWORD PTR [eax]
	call	edx
	cmp	esi, esp
	call	__RTC_CheckEsp
	mov	DWORD PTR tv147[ebp], eax
	jmp	SHORT $LN7@FzOR
$LN6@FzOR:
	mov	DWORD PTR tv147[ebp], 0
$LN7@FzOR:

; 138  :   }

	jmp	SHORT $LN2@FzOR
$LN3@FzOR:

; 139  : }

	lea	ecx, DWORD PTR _curTerm$[ebp]
	call	??1?$_Vector_iterator@V?$_Vector_val@U?$_Simple_types@PAVFuzzyTerm@@@std@@@std@@@std@@QAE@XZ
	mov	ecx, DWORD PTR _this$[ebp]
	add	ecx, 4
	call	??1?$vector@PAVFuzzyTerm@@V?$allocator@PAVFuzzyTerm@@@std@@@std@@QAE@XZ ; std::vector<FuzzyTerm *,std::allocator<FuzzyTerm *> >::~vector<FuzzyTerm *,std::allocator<FuzzyTerm *> >
	mov	ecx, DWORD PTR _this$[ebp]
	call	??1FuzzyTerm@@UAE@XZ			; FuzzyTerm::~FuzzyTerm
	push	edx
	mov	ecx, ebp
	push	eax
	lea	edx, DWORD PTR $LN11@FzOR
	call	@_RTC_CheckStackVars@8
	pop	eax
	pop	edx
	mov	ecx, DWORD PTR __$EHRec$[ebp]
	mov	DWORD PTR fs:0, ecx
	pop	ecx
	pop	edi
	pop	esi
	add	esp, 72					; 00000048H
	cmp	ebp, esp
	call	__RTC_CheckEsp
	mov	esp, ebp
	pop	ebp
	ret	0
$LN11@FzOR:
	DD	1
	DD	$LN10@FzOR
$LN10@FzOR:
	DD	-32					; ffffffe0H
	DD	12					; 0000000cH
	DD	$LN8@FzOR
$LN8@FzOR:
	DB	99					; 00000063H
	DB	117					; 00000075H
	DB	114					; 00000072H
	DB	84					; 00000054H
	DB	101					; 00000065H
	DB	114					; 00000072H
	DB	109					; 0000006dH
	DB	0
	int	3
	int	3
	int	3
	int	3
	int	3
_TEXT	ENDS
;	COMDAT text$x
text$x	SEGMENT
__ehhandler$??1FzOR@@UAE@XZ:
	npad	1
	npad	1
	mov	edx, DWORD PTR [esp+8]
	lea	eax, DWORD PTR [edx+12]
	mov	ecx, DWORD PTR [edx-72]
	xor	ecx, eax
	call	@__security_check_cookie@4
	mov	eax, OFFSET __ehfuncinfo$??1FzOR@@UAE@XZ
	jmp	___CxxFrameHandler3
text$x	ENDS
??1FzOR@@UAE@XZ ENDP					; FzOR::~FzOR
; Function compile flags: /Odtp /RTCsu
;	COMDAT ??_GFzAND@@UAEPAXI@Z
_TEXT	SEGMENT
_this$ = -4						; size = 4
___flags$ = 8						; size = 4
??_GFzAND@@UAEPAXI@Z PROC				; FzAND::`scalar deleting destructor', COMDAT
; _this$ = ecx
	push	ebp
	mov	ebp, esp
	push	ecx
	mov	DWORD PTR [ebp-4], -858993460		; ccccccccH
	mov	DWORD PTR _this$[ebp], ecx
	mov	ecx, DWORD PTR _this$[ebp]
	call	??1FzAND@@UAE@XZ			; FzAND::~FzAND
	mov	eax, DWORD PTR ___flags$[ebp]
	and	eax, 1
	je	SHORT $LN2@scalar
	push	20					; 00000014H
	mov	ecx, DWORD PTR _this$[ebp]
	push	ecx
	call	??3@YAXPAXI@Z				; operator delete
	add	esp, 8
$LN2@scalar:
	mov	eax, DWORD PTR _this$[ebp]
	add	esp, 4
	cmp	ebp, esp
	call	__RTC_CheckEsp
	mov	esp, ebp
	pop	ebp
	ret	4
??_GFzAND@@UAEPAXI@Z ENDP				; FzAND::`scalar deleting destructor'
_TEXT	ENDS
; Function compile flags: /Odtp /RTCsu
; File F:\Téléchargements\solution_lab_apprentissage - Copie\Common\fuzzy\FuzzyOperators.cpp
;	COMDAT ?ORwithDOM@FzAND@@UAEXN@Z
_TEXT	SEGMENT
tv131 = -80						; size = 4
tv139 = -76						; size = 4
tv65 = -72						; size = 4
tv137 = -68						; size = 4
$T2 = -64						; size = 12
$T3 = -49						; size = 1
$T4 = -48						; size = 12
_curTerm$ = -32						; size = 12
_this$ = -16						; size = 4
__$EHRec$ = -12						; size = 12
_val$ = 8						; size = 8
?ORwithDOM@FzAND@@UAEXN@Z PROC				; FzAND::ORwithDOM, COMDAT
; _this$ = ecx

; 75   : {

	push	ebp
	mov	ebp, esp
	push	-1
	push	__ehhandler$?ORwithDOM@FzAND@@UAEXN@Z
	mov	eax, DWORD PTR fs:0
	push	eax
	sub	esp, 68					; 00000044H
	push	esi
	push	edi
	push	ecx
	lea	edi, DWORD PTR [ebp-80]
	mov	ecx, 17					; 00000011H
	mov	eax, -858993460				; ccccccccH
	rep stosd
	pop	ecx
	mov	eax, DWORD PTR ___security_cookie
	xor	eax, ebp
	push	eax
	lea	eax, DWORD PTR __$EHRec$[ebp]
	mov	DWORD PTR fs:0, eax
	mov	DWORD PTR _this$[ebp], ecx

; 76   :   std::vector<FuzzyTerm*>::iterator curTerm;

	lea	ecx, DWORD PTR _curTerm$[ebp]
	call	??0?$_Vector_iterator@V?$_Vector_val@U?$_Simple_types@PAVFuzzyTerm@@@std@@@std@@@std@@QAE@XZ
	mov	DWORD PTR __$EHRec$[ebp+8], 0

; 77   :   for (curTerm = m_Terms.begin(); curTerm != m_Terms.end(); ++curTerm)

	lea	eax, DWORD PTR $T4[ebp]
	push	eax
	mov	ecx, DWORD PTR _this$[ebp]
	add	ecx, 4
	call	?begin@?$vector@PAVFuzzyTerm@@V?$allocator@PAVFuzzyTerm@@@std@@@std@@QAE?AV?$_Vector_iterator@V?$_Vector_val@U?$_Simple_types@PAVFuzzyTerm@@@std@@@std@@@2@XZ ; std::vector<FuzzyTerm *,std::allocator<FuzzyTerm *> >::begin
	mov	DWORD PTR tv137[ebp], eax
	mov	ecx, DWORD PTR tv137[ebp]
	push	ecx
	lea	ecx, DWORD PTR _curTerm$[ebp]
	call	??4?$_Vector_iterator@V?$_Vector_val@U?$_Simple_types@PAVFuzzyTerm@@@std@@@std@@@std@@QAEAAV01@$$QAV01@@Z
	lea	ecx, DWORD PTR $T4[ebp]
	call	??1?$_Vector_iterator@V?$_Vector_val@U?$_Simple_types@PAVFuzzyTerm@@@std@@@std@@@std@@QAE@XZ
	jmp	SHORT $LN4@ORwithDOM
$LN2@ORwithDOM:
	lea	ecx, DWORD PTR _curTerm$[ebp]
	call	??E?$_Vector_iterator@V?$_Vector_val@U?$_Simple_types@PAVFuzzyTerm@@@std@@@std@@@std@@QAEAAV01@XZ ; std::_Vector_iterator<std::_Vector_val<std::_Simple_types<FuzzyTerm *> > >::operator++
$LN4@ORwithDOM:
	lea	edx, DWORD PTR $T2[ebp]
	push	edx
	mov	ecx, DWORD PTR _this$[ebp]
	add	ecx, 4
	call	?end@?$vector@PAVFuzzyTerm@@V?$allocator@PAVFuzzyTerm@@@std@@@std@@QAE?AV?$_Vector_iterator@V?$_Vector_val@U?$_Simple_types@PAVFuzzyTerm@@@std@@@std@@@2@XZ ; std::vector<FuzzyTerm *,std::allocator<FuzzyTerm *> >::end
	mov	DWORD PTR tv65[ebp], eax
	mov	eax, DWORD PTR tv65[ebp]
	mov	DWORD PTR tv139[ebp], eax
	mov	BYTE PTR __$EHRec$[ebp+8], 1
	mov	ecx, DWORD PTR tv139[ebp]
	push	ecx
	lea	ecx, DWORD PTR _curTerm$[ebp]
	call	??9?$_Vector_const_iterator@V?$_Vector_val@U?$_Simple_types@PAVFuzzyTerm@@@std@@@std@@@std@@QBE_NABV01@@Z ; std::_Vector_const_iterator<std::_Vector_val<std::_Simple_types<FuzzyTerm *> > >::operator!=
	mov	BYTE PTR $T3[ebp], al
	mov	BYTE PTR __$EHRec$[ebp+8], 0
	lea	ecx, DWORD PTR $T2[ebp]
	call	??1?$_Vector_iterator@V?$_Vector_val@U?$_Simple_types@PAVFuzzyTerm@@@std@@@std@@@std@@QAE@XZ
	movzx	edx, BYTE PTR $T3[ebp]
	test	edx, edx
	je	SHORT $LN3@ORwithDOM

; 78   :   {
; 79   :     (*curTerm)->ORwithDOM(val);

	lea	ecx, DWORD PTR _curTerm$[ebp]
	call	??D?$_Vector_iterator@V?$_Vector_val@U?$_Simple_types@PAVFuzzyTerm@@@std@@@std@@@std@@QBEAAPAVFuzzyTerm@@XZ ; std::_Vector_iterator<std::_Vector_val<std::_Simple_types<FuzzyTerm *> > >::operator*
	mov	eax, DWORD PTR [eax]
	mov	DWORD PTR tv131[ebp], eax
	mov	esi, esp
	sub	esp, 8
	movsd	xmm0, QWORD PTR _val$[ebp]
	movsd	QWORD PTR [esp], xmm0
	mov	ecx, DWORD PTR tv131[ebp]
	mov	edx, DWORD PTR [ecx]
	mov	ecx, DWORD PTR tv131[ebp]
	mov	eax, DWORD PTR [edx+16]
	call	eax
	cmp	esi, esp
	call	__RTC_CheckEsp

; 80   :   }

	jmp	SHORT $LN2@ORwithDOM
$LN3@ORwithDOM:

; 81   : }

	mov	DWORD PTR __$EHRec$[ebp+8], -1
	lea	ecx, DWORD PTR _curTerm$[ebp]
	call	??1?$_Vector_iterator@V?$_Vector_val@U?$_Simple_types@PAVFuzzyTerm@@@std@@@std@@@std@@QAE@XZ
	push	edx
	mov	ecx, ebp
	push	eax
	lea	edx, DWORD PTR $LN12@ORwithDOM
	call	@_RTC_CheckStackVars@8
	pop	eax
	pop	edx
	mov	ecx, DWORD PTR __$EHRec$[ebp]
	mov	DWORD PTR fs:0, ecx
	pop	ecx
	pop	edi
	pop	esi
	add	esp, 80					; 00000050H
	cmp	ebp, esp
	call	__RTC_CheckEsp
	mov	esp, ebp
	pop	ebp
	ret	8
$LN12@ORwithDOM:
	DD	1
	DD	$LN11@ORwithDOM
$LN11@ORwithDOM:
	DD	-32					; ffffffe0H
	DD	12					; 0000000cH
	DD	$LN9@ORwithDOM
$LN9@ORwithDOM:
	DB	99					; 00000063H
	DB	117					; 00000075H
	DB	114					; 00000072H
	DB	84					; 00000054H
	DB	101					; 00000065H
	DB	114					; 00000072H
	DB	109					; 0000006dH
	DB	0
_TEXT	ENDS
;	COMDAT text$x
text$x	SEGMENT
__unwindfunclet$?ORwithDOM@FzAND@@UAEXN@Z$0:
	lea	ecx, DWORD PTR _curTerm$[ebp]
	jmp	??1?$_Vector_iterator@V?$_Vector_val@U?$_Simple_types@PAVFuzzyTerm@@@std@@@std@@@std@@QAE@XZ
__unwindfunclet$?ORwithDOM@FzAND@@UAEXN@Z$2:
	lea	ecx, DWORD PTR $T2[ebp]
	jmp	??1?$_Vector_iterator@V?$_Vector_val@U?$_Simple_types@PAVFuzzyTerm@@@std@@@std@@@std@@QAE@XZ
	int	3
	int	3
	int	3
	int	3
	int	3
__ehhandler$?ORwithDOM@FzAND@@UAEXN@Z:
	npad	1
	npad	1
	mov	edx, DWORD PTR [esp+8]
	lea	eax, DWORD PTR [edx+12]
	mov	ecx, DWORD PTR [edx-80]
	xor	ecx, eax
	call	@__security_check_cookie@4
	mov	eax, OFFSET __ehfuncinfo$?ORwithDOM@FzAND@@UAEXN@Z
	jmp	___CxxFrameHandler3
text$x	ENDS
?ORwithDOM@FzAND@@UAEXN@Z ENDP				; FzAND::ORwithDOM
; Function compile flags: /Odtp /RTCsu
; File F:\Téléchargements\solution_lab_apprentissage - Copie\Common\fuzzy\FuzzyOperators.cpp
;	COMDAT ?ClearDOM@FzAND@@UAEXXZ
_TEXT	SEGMENT
tv131 = -80						; size = 4
tv138 = -76						; size = 4
tv65 = -72						; size = 4
tv136 = -68						; size = 4
$T2 = -64						; size = 12
$T3 = -49						; size = 1
$T4 = -48						; size = 12
_curTerm$ = -32						; size = 12
_this$ = -16						; size = 4
__$EHRec$ = -12						; size = 12
?ClearDOM@FzAND@@UAEXXZ PROC				; FzAND::ClearDOM, COMDAT
; _this$ = ecx

; 85   : {

	push	ebp
	mov	ebp, esp
	push	-1
	push	__ehhandler$?ClearDOM@FzAND@@UAEXXZ
	mov	eax, DWORD PTR fs:0
	push	eax
	sub	esp, 68					; 00000044H
	push	esi
	push	edi
	push	ecx
	lea	edi, DWORD PTR [ebp-80]
	mov	ecx, 17					; 00000011H
	mov	eax, -858993460				; ccccccccH
	rep stosd
	pop	ecx
	mov	eax, DWORD PTR ___security_cookie
	xor	eax, ebp
	push	eax
	lea	eax, DWORD PTR __$EHRec$[ebp]
	mov	DWORD PTR fs:0, eax
	mov	DWORD PTR _this$[ebp], ecx

; 86   :   std::vector<FuzzyTerm*>::iterator curTerm;

	lea	ecx, DWORD PTR _curTerm$[ebp]
	call	??0?$_Vector_iterator@V?$_Vector_val@U?$_Simple_types@PAVFuzzyTerm@@@std@@@std@@@std@@QAE@XZ
	mov	DWORD PTR __$EHRec$[ebp+8], 0

; 87   :   for (curTerm = m_Terms.begin(); curTerm != m_Terms.end(); ++curTerm)

	lea	eax, DWORD PTR $T4[ebp]
	push	eax
	mov	ecx, DWORD PTR _this$[ebp]
	add	ecx, 4
	call	?begin@?$vector@PAVFuzzyTerm@@V?$allocator@PAVFuzzyTerm@@@std@@@std@@QAE?AV?$_Vector_iterator@V?$_Vector_val@U?$_Simple_types@PAVFuzzyTerm@@@std@@@std@@@2@XZ ; std::vector<FuzzyTerm *,std::allocator<FuzzyTerm *> >::begin
	mov	DWORD PTR tv136[ebp], eax
	mov	ecx, DWORD PTR tv136[ebp]
	push	ecx
	lea	ecx, DWORD PTR _curTerm$[ebp]
	call	??4?$_Vector_iterator@V?$_Vector_val@U?$_Simple_types@PAVFuzzyTerm@@@std@@@std@@@std@@QAEAAV01@$$QAV01@@Z
	lea	ecx, DWORD PTR $T4[ebp]
	call	??1?$_Vector_iterator@V?$_Vector_val@U?$_Simple_types@PAVFuzzyTerm@@@std@@@std@@@std@@QAE@XZ
	jmp	SHORT $LN4@ClearDOM
$LN2@ClearDOM:
	lea	ecx, DWORD PTR _curTerm$[ebp]
	call	??E?$_Vector_iterator@V?$_Vector_val@U?$_Simple_types@PAVFuzzyTerm@@@std@@@std@@@std@@QAEAAV01@XZ ; std::_Vector_iterator<std::_Vector_val<std::_Simple_types<FuzzyTerm *> > >::operator++
$LN4@ClearDOM:
	lea	edx, DWORD PTR $T2[ebp]
	push	edx
	mov	ecx, DWORD PTR _this$[ebp]
	add	ecx, 4
	call	?end@?$vector@PAVFuzzyTerm@@V?$allocator@PAVFuzzyTerm@@@std@@@std@@QAE?AV?$_Vector_iterator@V?$_Vector_val@U?$_Simple_types@PAVFuzzyTerm@@@std@@@std@@@2@XZ ; std::vector<FuzzyTerm *,std::allocator<FuzzyTerm *> >::end
	mov	DWORD PTR tv65[ebp], eax
	mov	eax, DWORD PTR tv65[ebp]
	mov	DWORD PTR tv138[ebp], eax
	mov	BYTE PTR __$EHRec$[ebp+8], 1
	mov	ecx, DWORD PTR tv138[ebp]
	push	ecx
	lea	ecx, DWORD PTR _curTerm$[ebp]
	call	??9?$_Vector_const_iterator@V?$_Vector_val@U?$_Simple_types@PAVFuzzyTerm@@@std@@@std@@@std@@QBE_NABV01@@Z ; std::_Vector_const_iterator<std::_Vector_val<std::_Simple_types<FuzzyTerm *> > >::operator!=
	mov	BYTE PTR $T3[ebp], al
	mov	BYTE PTR __$EHRec$[ebp+8], 0
	lea	ecx, DWORD PTR $T2[ebp]
	call	??1?$_Vector_iterator@V?$_Vector_val@U?$_Simple_types@PAVFuzzyTerm@@@std@@@std@@@std@@QAE@XZ
	movzx	edx, BYTE PTR $T3[ebp]
	test	edx, edx
	je	SHORT $LN3@ClearDOM

; 88   :   {
; 89   :     (*curTerm)->ClearDOM();

	lea	ecx, DWORD PTR _curTerm$[ebp]
	call	??D?$_Vector_iterator@V?$_Vector_val@U?$_Simple_types@PAVFuzzyTerm@@@std@@@std@@@std@@QBEAAPAVFuzzyTerm@@XZ ; std::_Vector_iterator<std::_Vector_val<std::_Simple_types<FuzzyTerm *> > >::operator*
	mov	eax, DWORD PTR [eax]
	mov	DWORD PTR tv131[ebp], eax
	mov	ecx, DWORD PTR tv131[ebp]
	mov	edx, DWORD PTR [ecx]
	mov	esi, esp
	mov	ecx, DWORD PTR tv131[ebp]
	mov	eax, DWORD PTR [edx+12]
	call	eax
	cmp	esi, esp
	call	__RTC_CheckEsp

; 90   :   }

	jmp	SHORT $LN2@ClearDOM
$LN3@ClearDOM:

; 91   : }

	mov	DWORD PTR __$EHRec$[ebp+8], -1
	lea	ecx, DWORD PTR _curTerm$[ebp]
	call	??1?$_Vector_iterator@V?$_Vector_val@U?$_Simple_types@PAVFuzzyTerm@@@std@@@std@@@std@@QAE@XZ
	push	edx
	mov	ecx, ebp
	push	eax
	lea	edx, DWORD PTR $LN12@ClearDOM
	call	@_RTC_CheckStackVars@8
	pop	eax
	pop	edx
	mov	ecx, DWORD PTR __$EHRec$[ebp]
	mov	DWORD PTR fs:0, ecx
	pop	ecx
	pop	edi
	pop	esi
	add	esp, 80					; 00000050H
	cmp	ebp, esp
	call	__RTC_CheckEsp
	mov	esp, ebp
	pop	ebp
	ret	0
	npad	3
$LN12@ClearDOM:
	DD	1
	DD	$LN11@ClearDOM
$LN11@ClearDOM:
	DD	-32					; ffffffe0H
	DD	12					; 0000000cH
	DD	$LN9@ClearDOM
$LN9@ClearDOM:
	DB	99					; 00000063H
	DB	117					; 00000075H
	DB	114					; 00000072H
	DB	84					; 00000054H
	DB	101					; 00000065H
	DB	114					; 00000072H
	DB	109					; 0000006dH
	DB	0
_TEXT	ENDS
;	COMDAT text$x
text$x	SEGMENT
__unwindfunclet$?ClearDOM@FzAND@@UAEXXZ$0:
	lea	ecx, DWORD PTR _curTerm$[ebp]
	jmp	??1?$_Vector_iterator@V?$_Vector_val@U?$_Simple_types@PAVFuzzyTerm@@@std@@@std@@@std@@QAE@XZ
__unwindfunclet$?ClearDOM@FzAND@@UAEXXZ$2:
	lea	ecx, DWORD PTR $T2[ebp]
	jmp	??1?$_Vector_iterator@V?$_Vector_val@U?$_Simple_types@PAVFuzzyTerm@@@std@@@std@@@std@@QAE@XZ
	int	3
	int	3
	int	3
	int	3
	int	3
__ehhandler$?ClearDOM@FzAND@@UAEXXZ:
	npad	1
	npad	1
	mov	edx, DWORD PTR [esp+8]
	lea	eax, DWORD PTR [edx+12]
	mov	ecx, DWORD PTR [edx-80]
	xor	ecx, eax
	call	@__security_check_cookie@4
	mov	eax, OFFSET __ehfuncinfo$?ClearDOM@FzAND@@UAEXXZ
	jmp	___CxxFrameHandler3
text$x	ENDS
?ClearDOM@FzAND@@UAEXXZ ENDP				; FzAND::ClearDOM
; Function compile flags: /Odtp /RTCsu
; File F:\Téléchargements\solution_lab_apprentissage - Copie\Common\fuzzy\FuzzyOperators.cpp
;	COMDAT ?GetDOM@FzAND@@UBENXZ
_TEXT	SEGMENT
tv132 = -108						; size = 4
tv165 = -104						; size = 8
tv91 = -96						; size = 4
tv140 = -92						; size = 4
tv65 = -88						; size = 4
tv138 = -84						; size = 4
$T2 = -80						; size = 8
$T3 = -72						; size = 12
$T4 = -57						; size = 1
$T5 = -56						; size = 12
_curTerm$ = -40						; size = 12
_smallest$ = -24					; size = 8
_this$ = -16						; size = 4
__$EHRec$ = -12						; size = 12
?GetDOM@FzAND@@UBENXZ PROC				; FzAND::GetDOM, COMDAT
; _this$ = ecx

; 57   : {

	push	ebp
	mov	ebp, esp
	push	-1
	push	__ehhandler$?GetDOM@FzAND@@UBENXZ
	mov	eax, DWORD PTR fs:0
	push	eax
	sub	esp, 96					; 00000060H
	push	esi
	push	edi
	push	ecx
	lea	edi, DWORD PTR [ebp-108]
	mov	ecx, 24					; 00000018H
	mov	eax, -858993460				; ccccccccH
	rep stosd
	pop	ecx
	mov	eax, DWORD PTR ___security_cookie
	xor	eax, ebp
	push	eax
	lea	eax, DWORD PTR __$EHRec$[ebp]
	mov	DWORD PTR fs:0, eax
	mov	DWORD PTR _this$[ebp], ecx

; 58   :   double smallest = MaxDouble;

	movsd	xmm0, QWORD PTR __real@7fefffffffffffff
	movsd	QWORD PTR _smallest$[ebp], xmm0

; 59   : 
; 60   :   std::vector<FuzzyTerm*>::const_iterator curTerm;

	lea	ecx, DWORD PTR _curTerm$[ebp]
	call	??0?$_Vector_const_iterator@V?$_Vector_val@U?$_Simple_types@PAVFuzzyTerm@@@std@@@std@@@std@@QAE@XZ ; std::_Vector_const_iterator<std::_Vector_val<std::_Simple_types<FuzzyTerm *> > >::_Vector_const_iterator<std::_Vector_val<std::_Simple_types<FuzzyTerm *> > >
	mov	DWORD PTR __$EHRec$[ebp+8], 0

; 61   :   for (curTerm = m_Terms.begin(); curTerm != m_Terms.end(); ++curTerm)

	lea	eax, DWORD PTR $T5[ebp]
	push	eax
	mov	ecx, DWORD PTR _this$[ebp]
	add	ecx, 4
	call	?begin@?$vector@PAVFuzzyTerm@@V?$allocator@PAVFuzzyTerm@@@std@@@std@@QBE?AV?$_Vector_const_iterator@V?$_Vector_val@U?$_Simple_types@PAVFuzzyTerm@@@std@@@std@@@2@XZ ; std::vector<FuzzyTerm *,std::allocator<FuzzyTerm *> >::begin
	mov	DWORD PTR tv138[ebp], eax
	mov	ecx, DWORD PTR tv138[ebp]
	push	ecx
	lea	ecx, DWORD PTR _curTerm$[ebp]
	call	??4?$_Vector_const_iterator@V?$_Vector_val@U?$_Simple_types@PAVFuzzyTerm@@@std@@@std@@@std@@QAEAAV01@$$QAV01@@Z
	lea	ecx, DWORD PTR $T5[ebp]
	call	??1?$_Vector_const_iterator@V?$_Vector_val@U?$_Simple_types@PAVFuzzyTerm@@@std@@@std@@@std@@QAE@XZ
	jmp	SHORT $LN4@GetDOM
$LN2@GetDOM:
	lea	ecx, DWORD PTR _curTerm$[ebp]
	call	??E?$_Vector_const_iterator@V?$_Vector_val@U?$_Simple_types@PAVFuzzyTerm@@@std@@@std@@@std@@QAEAAV01@XZ ; std::_Vector_const_iterator<std::_Vector_val<std::_Simple_types<FuzzyTerm *> > >::operator++
$LN4@GetDOM:
	lea	edx, DWORD PTR $T3[ebp]
	push	edx
	mov	ecx, DWORD PTR _this$[ebp]
	add	ecx, 4
	call	?end@?$vector@PAVFuzzyTerm@@V?$allocator@PAVFuzzyTerm@@@std@@@std@@QBE?AV?$_Vector_const_iterator@V?$_Vector_val@U?$_Simple_types@PAVFuzzyTerm@@@std@@@std@@@2@XZ ; std::vector<FuzzyTerm *,std::allocator<FuzzyTerm *> >::end
	mov	DWORD PTR tv65[ebp], eax
	mov	eax, DWORD PTR tv65[ebp]
	mov	DWORD PTR tv140[ebp], eax
	mov	BYTE PTR __$EHRec$[ebp+8], 1
	mov	ecx, DWORD PTR tv140[ebp]
	push	ecx
	lea	ecx, DWORD PTR _curTerm$[ebp]
	call	??9?$_Vector_const_iterator@V?$_Vector_val@U?$_Simple_types@PAVFuzzyTerm@@@std@@@std@@@std@@QBE_NABV01@@Z ; std::_Vector_const_iterator<std::_Vector_val<std::_Simple_types<FuzzyTerm *> > >::operator!=
	mov	BYTE PTR $T4[ebp], al
	mov	BYTE PTR __$EHRec$[ebp+8], 0
	lea	ecx, DWORD PTR $T3[ebp]
	call	??1?$_Vector_const_iterator@V?$_Vector_val@U?$_Simple_types@PAVFuzzyTerm@@@std@@@std@@@std@@QAE@XZ
	movzx	edx, BYTE PTR $T4[ebp]
	test	edx, edx
	je	SHORT $LN3@GetDOM

; 62   :   {
; 63   :     if ((*curTerm)->GetDOM() < smallest)

	lea	ecx, DWORD PTR _curTerm$[ebp]
	call	??D?$_Vector_const_iterator@V?$_Vector_val@U?$_Simple_types@PAVFuzzyTerm@@@std@@@std@@@std@@QBEABQAVFuzzyTerm@@XZ ; std::_Vector_const_iterator<std::_Vector_val<std::_Simple_types<FuzzyTerm *> > >::operator*
	mov	eax, DWORD PTR [eax]
	mov	DWORD PTR tv91[ebp], eax
	mov	ecx, DWORD PTR tv91[ebp]
	mov	edx, DWORD PTR [ecx]
	mov	esi, esp
	mov	ecx, DWORD PTR tv91[ebp]
	mov	eax, DWORD PTR [edx+8]
	call	eax
	cmp	esi, esp
	call	__RTC_CheckEsp
	fstp	QWORD PTR tv165[ebp]
	movsd	xmm0, QWORD PTR _smallest$[ebp]
	comisd	xmm0, QWORD PTR tv165[ebp]
	jbe	SHORT $LN5@GetDOM

; 64   :     {
; 65   :       smallest = (*curTerm)->GetDOM();

	lea	ecx, DWORD PTR _curTerm$[ebp]
	call	??D?$_Vector_const_iterator@V?$_Vector_val@U?$_Simple_types@PAVFuzzyTerm@@@std@@@std@@@std@@QBEABQAVFuzzyTerm@@XZ ; std::_Vector_const_iterator<std::_Vector_val<std::_Simple_types<FuzzyTerm *> > >::operator*
	mov	ecx, DWORD PTR [eax]
	mov	DWORD PTR tv132[ebp], ecx
	mov	edx, DWORD PTR tv132[ebp]
	mov	eax, DWORD PTR [edx]
	mov	esi, esp
	mov	ecx, DWORD PTR tv132[ebp]
	mov	edx, DWORD PTR [eax+8]
	call	edx
	cmp	esi, esp
	call	__RTC_CheckEsp
	fstp	QWORD PTR _smallest$[ebp]
$LN5@GetDOM:

; 66   :     }
; 67   :   }

	jmp	$LN2@GetDOM
$LN3@GetDOM:

; 68   : 
; 69   :   return smallest;

	movsd	xmm0, QWORD PTR _smallest$[ebp]
	movsd	QWORD PTR $T2[ebp], xmm0
	mov	DWORD PTR __$EHRec$[ebp+8], -1
	lea	ecx, DWORD PTR _curTerm$[ebp]
	call	??1?$_Vector_const_iterator@V?$_Vector_val@U?$_Simple_types@PAVFuzzyTerm@@@std@@@std@@@std@@QAE@XZ
	fld	QWORD PTR $T2[ebp]

; 70   : }

	push	edx
	mov	ecx, ebp
	push	eax
	lea	edx, DWORD PTR $LN13@GetDOM
	call	@_RTC_CheckStackVars@8
	pop	eax
	pop	edx
	mov	ecx, DWORD PTR __$EHRec$[ebp]
	mov	DWORD PTR fs:0, ecx
	pop	ecx
	pop	edi
	pop	esi
	add	esp, 108				; 0000006cH
	cmp	ebp, esp
	call	__RTC_CheckEsp
	mov	esp, ebp
	pop	ebp
	ret	0
	npad	1
$LN13@GetDOM:
	DD	1
	DD	$LN12@GetDOM
$LN12@GetDOM:
	DD	-40					; ffffffd8H
	DD	12					; 0000000cH
	DD	$LN10@GetDOM
$LN10@GetDOM:
	DB	99					; 00000063H
	DB	117					; 00000075H
	DB	114					; 00000072H
	DB	84					; 00000054H
	DB	101					; 00000065H
	DB	114					; 00000072H
	DB	109					; 0000006dH
	DB	0
_TEXT	ENDS
;	COMDAT text$x
text$x	SEGMENT
__unwindfunclet$?GetDOM@FzAND@@UBENXZ$0:
	lea	ecx, DWORD PTR _curTerm$[ebp]
	jmp	??1?$_Vector_const_iterator@V?$_Vector_val@U?$_Simple_types@PAVFuzzyTerm@@@std@@@std@@@std@@QAE@XZ
__unwindfunclet$?GetDOM@FzAND@@UBENXZ$2:
	lea	ecx, DWORD PTR $T3[ebp]
	jmp	??1?$_Vector_const_iterator@V?$_Vector_val@U?$_Simple_types@PAVFuzzyTerm@@@std@@@std@@@std@@QAE@XZ
	int	3
	int	3
	int	3
	int	3
	int	3
__ehhandler$?GetDOM@FzAND@@UBENXZ:
	npad	1
	npad	1
	mov	edx, DWORD PTR [esp+8]
	lea	eax, DWORD PTR [edx+12]
	mov	ecx, DWORD PTR [edx-108]
	xor	ecx, eax
	call	@__security_check_cookie@4
	mov	eax, OFFSET __ehfuncinfo$?GetDOM@FzAND@@UBENXZ
	jmp	___CxxFrameHandler3
text$x	ENDS
?GetDOM@FzAND@@UBENXZ ENDP				; FzAND::GetDOM
; Function compile flags: /Odtp /RTCsu
; File F:\Téléchargements\solution_lab_apprentissage - Copie\Common\fuzzy\FuzzyOperators.h
;	COMDAT ?Clone@FzAND@@UBEPAVFuzzyTerm@@XZ
_TEXT	SEGMENT
tv79 = -28						; size = 4
$T2 = -24						; size = 4
$T3 = -20						; size = 4
_this$ = -16						; size = 4
__$EHRec$ = -12						; size = 12
?Clone@FzAND@@UBEPAVFuzzyTerm@@XZ PROC			; FzAND::Clone, COMDAT
; _this$ = ecx

; 45   :   FuzzyTerm* Clone()const{return new FzAND(*this);}

	push	ebp
	mov	ebp, esp
	push	-1
	push	__ehhandler$?Clone@FzAND@@UBEPAVFuzzyTerm@@XZ
	mov	eax, DWORD PTR fs:0
	push	eax
	sub	esp, 16					; 00000010H
	mov	eax, -858993460				; ccccccccH
	mov	DWORD PTR [ebp-28], eax
	mov	DWORD PTR [ebp-24], eax
	mov	DWORD PTR [ebp-20], eax
	mov	DWORD PTR [ebp-16], eax
	mov	eax, DWORD PTR ___security_cookie
	xor	eax, ebp
	push	eax
	lea	eax, DWORD PTR __$EHRec$[ebp]
	mov	DWORD PTR fs:0, eax
	mov	DWORD PTR _this$[ebp], ecx
	push	20					; 00000014H
	call	??2@YAPAXI@Z				; operator new
	add	esp, 4
	mov	DWORD PTR $T2[ebp], eax
	mov	DWORD PTR __$EHRec$[ebp+8], 0
	cmp	DWORD PTR $T2[ebp], 0
	je	SHORT $LN3@Clone
	mov	eax, DWORD PTR _this$[ebp]
	push	eax
	mov	ecx, DWORD PTR $T2[ebp]
	call	??0FzAND@@QAE@ABV0@@Z			; FzAND::FzAND
	mov	DWORD PTR tv79[ebp], eax
	jmp	SHORT $LN4@Clone
$LN3@Clone:
	mov	DWORD PTR tv79[ebp], 0
$LN4@Clone:
	mov	ecx, DWORD PTR tv79[ebp]
	mov	DWORD PTR $T3[ebp], ecx
	mov	DWORD PTR __$EHRec$[ebp+8], -1
	mov	eax, DWORD PTR $T3[ebp]
	mov	ecx, DWORD PTR __$EHRec$[ebp]
	mov	DWORD PTR fs:0, ecx
	pop	ecx
	add	esp, 28					; 0000001cH
	cmp	ebp, esp
	call	__RTC_CheckEsp
	mov	esp, ebp
	pop	ebp
	ret	0
_TEXT	ENDS
;	COMDAT text$x
text$x	SEGMENT
__unwindfunclet$?Clone@FzAND@@UBEPAVFuzzyTerm@@XZ$0:
	push	20					; 00000014H
	mov	eax, DWORD PTR $T2[ebp]
	push	eax
	call	??3@YAXPAXI@Z				; operator delete
	add	esp, 8
	ret	0
	int	3
	int	3
	int	3
	int	3
	int	3
__ehhandler$?Clone@FzAND@@UBEPAVFuzzyTerm@@XZ:
	npad	1
	npad	1
	mov	edx, DWORD PTR [esp+8]
	lea	eax, DWORD PTR [edx+12]
	mov	ecx, DWORD PTR [edx-20]
	xor	ecx, eax
	call	@__security_check_cookie@4
	mov	eax, OFFSET __ehfuncinfo$?Clone@FzAND@@UBEPAVFuzzyTerm@@XZ
	jmp	___CxxFrameHandler3
text$x	ENDS
?Clone@FzAND@@UBEPAVFuzzyTerm@@XZ ENDP			; FzAND::Clone
; Function compile flags: /Odtp /RTCsu
; File F:\Téléchargements\solution_lab_apprentissage - Copie\Common\fuzzy\FuzzyOperators.cpp
;	COMDAT ??0FzAND@@QAE@AAVFuzzyTerm@@000@Z
_TEXT	SEGMENT
$T2 = -32						; size = 4
$T3 = -28						; size = 4
$T4 = -24						; size = 4
$T5 = -20						; size = 4
_this$ = -16						; size = 4
__$EHRec$ = -12						; size = 12
_op1$ = 8						; size = 4
_op2$ = 12						; size = 4
_op3$ = 16						; size = 4
_op4$ = 20						; size = 4
??0FzAND@@QAE@AAVFuzzyTerm@@000@Z PROC			; FzAND::FzAND, COMDAT
; _this$ = ecx

; 34   : {

	push	ebp
	mov	ebp, esp
	push	-1
	push	__ehhandler$??0FzAND@@QAE@AAVFuzzyTerm@@000@Z
	mov	eax, DWORD PTR fs:0
	push	eax
	sub	esp, 20					; 00000014H
	push	esi
	mov	eax, -858993460				; ccccccccH
	mov	DWORD PTR [ebp-32], eax
	mov	DWORD PTR [ebp-28], eax
	mov	DWORD PTR [ebp-24], eax
	mov	DWORD PTR [ebp-20], eax
	mov	DWORD PTR [ebp-16], eax
	mov	eax, DWORD PTR ___security_cookie
	xor	eax, ebp
	push	eax
	lea	eax, DWORD PTR __$EHRec$[ebp]
	mov	DWORD PTR fs:0, eax
	mov	DWORD PTR _this$[ebp], ecx
	mov	ecx, DWORD PTR _this$[ebp]
	call	??0FuzzyTerm@@QAE@XZ
	mov	DWORD PTR __$EHRec$[ebp+8], 0
	mov	eax, DWORD PTR _this$[ebp]
	mov	DWORD PTR [eax], OFFSET ??_7FzAND@@6B@
	mov	ecx, DWORD PTR _this$[ebp]
	add	ecx, 4
	call	??0?$vector@PAVFuzzyTerm@@V?$allocator@PAVFuzzyTerm@@@std@@@std@@QAE@XZ ; std::vector<FuzzyTerm *,std::allocator<FuzzyTerm *> >::vector<FuzzyTerm *,std::allocator<FuzzyTerm *> >
	mov	BYTE PTR __$EHRec$[ebp+8], 1

; 35   :    m_Terms.push_back(op1.Clone());

	mov	ecx, DWORD PTR _op1$[ebp]
	mov	edx, DWORD PTR [ecx]
	mov	esi, esp
	mov	ecx, DWORD PTR _op1$[ebp]
	mov	eax, DWORD PTR [edx+4]
	call	eax
	cmp	esi, esp
	call	__RTC_CheckEsp
	mov	DWORD PTR $T5[ebp], eax
	lea	ecx, DWORD PTR $T5[ebp]
	push	ecx
	mov	ecx, DWORD PTR _this$[ebp]
	add	ecx, 4
	call	?push_back@?$vector@PAVFuzzyTerm@@V?$allocator@PAVFuzzyTerm@@@std@@@std@@QAEX$$QAPAVFuzzyTerm@@@Z ; std::vector<FuzzyTerm *,std::allocator<FuzzyTerm *> >::push_back

; 36   :    m_Terms.push_back(op2.Clone());

	mov	edx, DWORD PTR _op2$[ebp]
	mov	eax, DWORD PTR [edx]
	mov	esi, esp
	mov	ecx, DWORD PTR _op2$[ebp]
	mov	edx, DWORD PTR [eax+4]
	call	edx
	cmp	esi, esp
	call	__RTC_CheckEsp
	mov	DWORD PTR $T4[ebp], eax
	lea	eax, DWORD PTR $T4[ebp]
	push	eax
	mov	ecx, DWORD PTR _this$[ebp]
	add	ecx, 4
	call	?push_back@?$vector@PAVFuzzyTerm@@V?$allocator@PAVFuzzyTerm@@@std@@@std@@QAEX$$QAPAVFuzzyTerm@@@Z ; std::vector<FuzzyTerm *,std::allocator<FuzzyTerm *> >::push_back

; 37   :    m_Terms.push_back(op3.Clone());

	mov	ecx, DWORD PTR _op3$[ebp]
	mov	edx, DWORD PTR [ecx]
	mov	esi, esp
	mov	ecx, DWORD PTR _op3$[ebp]
	mov	eax, DWORD PTR [edx+4]
	call	eax
	cmp	esi, esp
	call	__RTC_CheckEsp
	mov	DWORD PTR $T3[ebp], eax
	lea	ecx, DWORD PTR $T3[ebp]
	push	ecx
	mov	ecx, DWORD PTR _this$[ebp]
	add	ecx, 4
	call	?push_back@?$vector@PAVFuzzyTerm@@V?$allocator@PAVFuzzyTerm@@@std@@@std@@QAEX$$QAPAVFuzzyTerm@@@Z ; std::vector<FuzzyTerm *,std::allocator<FuzzyTerm *> >::push_back

; 38   :    m_Terms.push_back(op4.Clone());

	mov	edx, DWORD PTR _op4$[ebp]
	mov	eax, DWORD PTR [edx]
	mov	esi, esp
	mov	ecx, DWORD PTR _op4$[ebp]
	mov	edx, DWORD PTR [eax+4]
	call	edx
	cmp	esi, esp
	call	__RTC_CheckEsp
	mov	DWORD PTR $T2[ebp], eax
	lea	eax, DWORD PTR $T2[ebp]
	push	eax
	mov	ecx, DWORD PTR _this$[ebp]
	add	ecx, 4
	call	?push_back@?$vector@PAVFuzzyTerm@@V?$allocator@PAVFuzzyTerm@@@std@@@std@@QAEX$$QAPAVFuzzyTerm@@@Z ; std::vector<FuzzyTerm *,std::allocator<FuzzyTerm *> >::push_back

; 39   : }

	mov	DWORD PTR __$EHRec$[ebp+8], -1
	mov	eax, DWORD PTR _this$[ebp]
	mov	ecx, DWORD PTR __$EHRec$[ebp]
	mov	DWORD PTR fs:0, ecx
	pop	ecx
	pop	esi
	add	esp, 32					; 00000020H
	cmp	ebp, esp
	call	__RTC_CheckEsp
	mov	esp, ebp
	pop	ebp
	ret	16					; 00000010H
_TEXT	ENDS
;	COMDAT text$x
text$x	SEGMENT
__unwindfunclet$??0FzAND@@QAE@AAVFuzzyTerm@@000@Z$0:
	mov	ecx, DWORD PTR _this$[ebp]
	jmp	??1FuzzyTerm@@UAE@XZ			; FuzzyTerm::~FuzzyTerm
__unwindfunclet$??0FzAND@@QAE@AAVFuzzyTerm@@000@Z$1:
	mov	ecx, DWORD PTR _this$[ebp]
	add	ecx, 4
	jmp	??1?$vector@PAVFuzzyTerm@@V?$allocator@PAVFuzzyTerm@@@std@@@std@@QAE@XZ ; std::vector<FuzzyTerm *,std::allocator<FuzzyTerm *> >::~vector<FuzzyTerm *,std::allocator<FuzzyTerm *> >
	int	3
	int	3
	int	3
	int	3
	int	3
__ehhandler$??0FzAND@@QAE@AAVFuzzyTerm@@000@Z:
	npad	1
	npad	1
	mov	edx, DWORD PTR [esp+8]
	lea	eax, DWORD PTR [edx+12]
	mov	ecx, DWORD PTR [edx-28]
	xor	ecx, eax
	call	@__security_check_cookie@4
	mov	eax, OFFSET __ehfuncinfo$??0FzAND@@QAE@AAVFuzzyTerm@@000@Z
	jmp	___CxxFrameHandler3
text$x	ENDS
??0FzAND@@QAE@AAVFuzzyTerm@@000@Z ENDP			; FzAND::FzAND
; Function compile flags: /Odtp /RTCsu
; File F:\Téléchargements\solution_lab_apprentissage - Copie\Common\fuzzy\FuzzyOperators.cpp
;	COMDAT ??0FzAND@@QAE@AAVFuzzyTerm@@00@Z
_TEXT	SEGMENT
$T2 = -28						; size = 4
$T3 = -24						; size = 4
$T4 = -20						; size = 4
_this$ = -16						; size = 4
__$EHRec$ = -12						; size = 12
_op1$ = 8						; size = 4
_op2$ = 12						; size = 4
_op3$ = 16						; size = 4
??0FzAND@@QAE@AAVFuzzyTerm@@00@Z PROC			; FzAND::FzAND, COMDAT
; _this$ = ecx

; 26   : {

	push	ebp
	mov	ebp, esp
	push	-1
	push	__ehhandler$??0FzAND@@QAE@AAVFuzzyTerm@@00@Z
	mov	eax, DWORD PTR fs:0
	push	eax
	sub	esp, 16					; 00000010H
	push	esi
	mov	eax, -858993460				; ccccccccH
	mov	DWORD PTR [ebp-28], eax
	mov	DWORD PTR [ebp-24], eax
	mov	DWORD PTR [ebp-20], eax
	mov	DWORD PTR [ebp-16], eax
	mov	eax, DWORD PTR ___security_cookie
	xor	eax, ebp
	push	eax
	lea	eax, DWORD PTR __$EHRec$[ebp]
	mov	DWORD PTR fs:0, eax
	mov	DWORD PTR _this$[ebp], ecx
	mov	ecx, DWORD PTR _this$[ebp]
	call	??0FuzzyTerm@@QAE@XZ
	mov	DWORD PTR __$EHRec$[ebp+8], 0
	mov	eax, DWORD PTR _this$[ebp]
	mov	DWORD PTR [eax], OFFSET ??_7FzAND@@6B@
	mov	ecx, DWORD PTR _this$[ebp]
	add	ecx, 4
	call	??0?$vector@PAVFuzzyTerm@@V?$allocator@PAVFuzzyTerm@@@std@@@std@@QAE@XZ ; std::vector<FuzzyTerm *,std::allocator<FuzzyTerm *> >::vector<FuzzyTerm *,std::allocator<FuzzyTerm *> >
	mov	BYTE PTR __$EHRec$[ebp+8], 1

; 27   :    m_Terms.push_back(op1.Clone());

	mov	ecx, DWORD PTR _op1$[ebp]
	mov	edx, DWORD PTR [ecx]
	mov	esi, esp
	mov	ecx, DWORD PTR _op1$[ebp]
	mov	eax, DWORD PTR [edx+4]
	call	eax
	cmp	esi, esp
	call	__RTC_CheckEsp
	mov	DWORD PTR $T4[ebp], eax
	lea	ecx, DWORD PTR $T4[ebp]
	push	ecx
	mov	ecx, DWORD PTR _this$[ebp]
	add	ecx, 4
	call	?push_back@?$vector@PAVFuzzyTerm@@V?$allocator@PAVFuzzyTerm@@@std@@@std@@QAEX$$QAPAVFuzzyTerm@@@Z ; std::vector<FuzzyTerm *,std::allocator<FuzzyTerm *> >::push_back

; 28   :    m_Terms.push_back(op2.Clone());

	mov	edx, DWORD PTR _op2$[ebp]
	mov	eax, DWORD PTR [edx]
	mov	esi, esp
	mov	ecx, DWORD PTR _op2$[ebp]
	mov	edx, DWORD PTR [eax+4]
	call	edx
	cmp	esi, esp
	call	__RTC_CheckEsp
	mov	DWORD PTR $T3[ebp], eax
	lea	eax, DWORD PTR $T3[ebp]
	push	eax
	mov	ecx, DWORD PTR _this$[ebp]
	add	ecx, 4
	call	?push_back@?$vector@PAVFuzzyTerm@@V?$allocator@PAVFuzzyTerm@@@std@@@std@@QAEX$$QAPAVFuzzyTerm@@@Z ; std::vector<FuzzyTerm *,std::allocator<FuzzyTerm *> >::push_back

; 29   :    m_Terms.push_back(op3.Clone());

	mov	ecx, DWORD PTR _op3$[ebp]
	mov	edx, DWORD PTR [ecx]
	mov	esi, esp
	mov	ecx, DWORD PTR _op3$[ebp]
	mov	eax, DWORD PTR [edx+4]
	call	eax
	cmp	esi, esp
	call	__RTC_CheckEsp
	mov	DWORD PTR $T2[ebp], eax
	lea	ecx, DWORD PTR $T2[ebp]
	push	ecx
	mov	ecx, DWORD PTR _this$[ebp]
	add	ecx, 4
	call	?push_back@?$vector@PAVFuzzyTerm@@V?$allocator@PAVFuzzyTerm@@@std@@@std@@QAEX$$QAPAVFuzzyTerm@@@Z ; std::vector<FuzzyTerm *,std::allocator<FuzzyTerm *> >::push_back

; 30   : }

	mov	DWORD PTR __$EHRec$[ebp+8], -1
	mov	eax, DWORD PTR _this$[ebp]
	mov	ecx, DWORD PTR __$EHRec$[ebp]
	mov	DWORD PTR fs:0, ecx
	pop	ecx
	pop	esi
	add	esp, 28					; 0000001cH
	cmp	ebp, esp
	call	__RTC_CheckEsp
	mov	esp, ebp
	pop	ebp
	ret	12					; 0000000cH
_TEXT	ENDS
;	COMDAT text$x
text$x	SEGMENT
__unwindfunclet$??0FzAND@@QAE@AAVFuzzyTerm@@00@Z$0:
	mov	ecx, DWORD PTR _this$[ebp]
	jmp	??1FuzzyTerm@@UAE@XZ			; FuzzyTerm::~FuzzyTerm
__unwindfunclet$??0FzAND@@QAE@AAVFuzzyTerm@@00@Z$1:
	mov	ecx, DWORD PTR _this$[ebp]
	add	ecx, 4
	jmp	??1?$vector@PAVFuzzyTerm@@V?$allocator@PAVFuzzyTerm@@@std@@@std@@QAE@XZ ; std::vector<FuzzyTerm *,std::allocator<FuzzyTerm *> >::~vector<FuzzyTerm *,std::allocator<FuzzyTerm *> >
	int	3
	int	3
	int	3
	int	3
	int	3
__ehhandler$??0FzAND@@QAE@AAVFuzzyTerm@@00@Z:
	npad	1
	npad	1
	mov	edx, DWORD PTR [esp+8]
	lea	eax, DWORD PTR [edx+12]
	mov	ecx, DWORD PTR [edx-24]
	xor	ecx, eax
	call	@__security_check_cookie@4
	mov	eax, OFFSET __ehfuncinfo$??0FzAND@@QAE@AAVFuzzyTerm@@00@Z
	jmp	___CxxFrameHandler3
text$x	ENDS
??0FzAND@@QAE@AAVFuzzyTerm@@00@Z ENDP			; FzAND::FzAND
; Function compile flags: /Odtp /RTCsu
; File F:\Téléchargements\solution_lab_apprentissage - Copie\Common\fuzzy\FuzzyOperators.cpp
;	COMDAT ??0FzAND@@QAE@AAVFuzzyTerm@@0@Z
_TEXT	SEGMENT
$T2 = -24						; size = 4
$T3 = -20						; size = 4
_this$ = -16						; size = 4
__$EHRec$ = -12						; size = 12
_op1$ = 8						; size = 4
_op2$ = 12						; size = 4
??0FzAND@@QAE@AAVFuzzyTerm@@0@Z PROC			; FzAND::FzAND, COMDAT
; _this$ = ecx

; 19   : {

	push	ebp
	mov	ebp, esp
	push	-1
	push	__ehhandler$??0FzAND@@QAE@AAVFuzzyTerm@@0@Z
	mov	eax, DWORD PTR fs:0
	push	eax
	sub	esp, 12					; 0000000cH
	push	esi
	mov	DWORD PTR [ebp-24], -858993460		; ccccccccH
	mov	DWORD PTR [ebp-20], -858993460		; ccccccccH
	mov	DWORD PTR [ebp-16], -858993460		; ccccccccH
	mov	eax, DWORD PTR ___security_cookie
	xor	eax, ebp
	push	eax
	lea	eax, DWORD PTR __$EHRec$[ebp]
	mov	DWORD PTR fs:0, eax
	mov	DWORD PTR _this$[ebp], ecx
	mov	ecx, DWORD PTR _this$[ebp]
	call	??0FuzzyTerm@@QAE@XZ
	mov	DWORD PTR __$EHRec$[ebp+8], 0
	mov	eax, DWORD PTR _this$[ebp]
	mov	DWORD PTR [eax], OFFSET ??_7FzAND@@6B@
	mov	ecx, DWORD PTR _this$[ebp]
	add	ecx, 4
	call	??0?$vector@PAVFuzzyTerm@@V?$allocator@PAVFuzzyTerm@@@std@@@std@@QAE@XZ ; std::vector<FuzzyTerm *,std::allocator<FuzzyTerm *> >::vector<FuzzyTerm *,std::allocator<FuzzyTerm *> >
	mov	BYTE PTR __$EHRec$[ebp+8], 1

; 20   :    m_Terms.push_back(op1.Clone());

	mov	ecx, DWORD PTR _op1$[ebp]
	mov	edx, DWORD PTR [ecx]
	mov	esi, esp
	mov	ecx, DWORD PTR _op1$[ebp]
	mov	eax, DWORD PTR [edx+4]
	call	eax
	cmp	esi, esp
	call	__RTC_CheckEsp
	mov	DWORD PTR $T3[ebp], eax
	lea	ecx, DWORD PTR $T3[ebp]
	push	ecx
	mov	ecx, DWORD PTR _this$[ebp]
	add	ecx, 4
	call	?push_back@?$vector@PAVFuzzyTerm@@V?$allocator@PAVFuzzyTerm@@@std@@@std@@QAEX$$QAPAVFuzzyTerm@@@Z ; std::vector<FuzzyTerm *,std::allocator<FuzzyTerm *> >::push_back

; 21   :    m_Terms.push_back(op2.Clone());

	mov	edx, DWORD PTR _op2$[ebp]
	mov	eax, DWORD PTR [edx]
	mov	esi, esp
	mov	ecx, DWORD PTR _op2$[ebp]
	mov	edx, DWORD PTR [eax+4]
	call	edx
	cmp	esi, esp
	call	__RTC_CheckEsp
	mov	DWORD PTR $T2[ebp], eax
	lea	eax, DWORD PTR $T2[ebp]
	push	eax
	mov	ecx, DWORD PTR _this$[ebp]
	add	ecx, 4
	call	?push_back@?$vector@PAVFuzzyTerm@@V?$allocator@PAVFuzzyTerm@@@std@@@std@@QAEX$$QAPAVFuzzyTerm@@@Z ; std::vector<FuzzyTerm *,std::allocator<FuzzyTerm *> >::push_back

; 22   : }

	mov	DWORD PTR __$EHRec$[ebp+8], -1
	mov	eax, DWORD PTR _this$[ebp]
	mov	ecx, DWORD PTR __$EHRec$[ebp]
	mov	DWORD PTR fs:0, ecx
	pop	ecx
	pop	esi
	add	esp, 24					; 00000018H
	cmp	ebp, esp
	call	__RTC_CheckEsp
	mov	esp, ebp
	pop	ebp
	ret	8
_TEXT	ENDS
;	COMDAT text$x
text$x	SEGMENT
__unwindfunclet$??0FzAND@@QAE@AAVFuzzyTerm@@0@Z$0:
	mov	ecx, DWORD PTR _this$[ebp]
	jmp	??1FuzzyTerm@@UAE@XZ			; FuzzyTerm::~FuzzyTerm
__unwindfunclet$??0FzAND@@QAE@AAVFuzzyTerm@@0@Z$1:
	mov	ecx, DWORD PTR _this$[ebp]
	add	ecx, 4
	jmp	??1?$vector@PAVFuzzyTerm@@V?$allocator@PAVFuzzyTerm@@@std@@@std@@QAE@XZ ; std::vector<FuzzyTerm *,std::allocator<FuzzyTerm *> >::~vector<FuzzyTerm *,std::allocator<FuzzyTerm *> >
	int	3
	int	3
	int	3
	int	3
	int	3
__ehhandler$??0FzAND@@QAE@AAVFuzzyTerm@@0@Z:
	npad	1
	npad	1
	mov	edx, DWORD PTR [esp+8]
	lea	eax, DWORD PTR [edx+12]
	mov	ecx, DWORD PTR [edx-20]
	xor	ecx, eax
	call	@__security_check_cookie@4
	mov	eax, OFFSET __ehfuncinfo$??0FzAND@@QAE@AAVFuzzyTerm@@0@Z
	jmp	___CxxFrameHandler3
text$x	ENDS
??0FzAND@@QAE@AAVFuzzyTerm@@0@Z ENDP			; FzAND::FzAND
; Function compile flags: /Odtp /RTCsu
; File F:\Téléchargements\solution_lab_apprentissage - Copie\Common\fuzzy\FuzzyOperators.cpp
;	COMDAT ??0FzAND@@QAE@ABV0@@Z
_TEXT	SEGMENT
tv146 = -84						; size = 4
tv158 = -80						; size = 4
tv86 = -76						; size = 4
tv156 = -72						; size = 4
$T2 = -68						; size = 4
$T3 = -64						; size = 12
$T4 = -49						; size = 1
$T5 = -48						; size = 12
_curTerm$ = -32						; size = 12
_this$ = -16						; size = 4
__$EHRec$ = -12						; size = 12
_fa$ = 8						; size = 4
??0FzAND@@QAE@ABV0@@Z PROC				; FzAND::FzAND, COMDAT
; _this$ = ecx

; 9    : {

	push	ebp
	mov	ebp, esp
	push	-1
	push	__ehhandler$??0FzAND@@QAE@ABV0@@Z
	mov	eax, DWORD PTR fs:0
	push	eax
	sub	esp, 72					; 00000048H
	push	esi
	push	edi
	push	ecx
	lea	edi, DWORD PTR [ebp-84]
	mov	ecx, 18					; 00000012H
	mov	eax, -858993460				; ccccccccH
	rep stosd
	pop	ecx
	mov	eax, DWORD PTR ___security_cookie
	xor	eax, ebp
	push	eax
	lea	eax, DWORD PTR __$EHRec$[ebp]
	mov	DWORD PTR fs:0, eax
	mov	DWORD PTR _this$[ebp], ecx
	mov	ecx, DWORD PTR _this$[ebp]
	call	??0FuzzyTerm@@QAE@XZ
	mov	DWORD PTR __$EHRec$[ebp+8], 0
	mov	eax, DWORD PTR _this$[ebp]
	mov	DWORD PTR [eax], OFFSET ??_7FzAND@@6B@
	mov	ecx, DWORD PTR _this$[ebp]
	add	ecx, 4
	call	??0?$vector@PAVFuzzyTerm@@V?$allocator@PAVFuzzyTerm@@@std@@@std@@QAE@XZ ; std::vector<FuzzyTerm *,std::allocator<FuzzyTerm *> >::vector<FuzzyTerm *,std::allocator<FuzzyTerm *> >
	mov	BYTE PTR __$EHRec$[ebp+8], 1

; 10   :    std::vector<FuzzyTerm*>::const_iterator curTerm;

	lea	ecx, DWORD PTR _curTerm$[ebp]
	call	??0?$_Vector_const_iterator@V?$_Vector_val@U?$_Simple_types@PAVFuzzyTerm@@@std@@@std@@@std@@QAE@XZ ; std::_Vector_const_iterator<std::_Vector_val<std::_Simple_types<FuzzyTerm *> > >::_Vector_const_iterator<std::_Vector_val<std::_Simple_types<FuzzyTerm *> > >
	mov	BYTE PTR __$EHRec$[ebp+8], 2

; 11   :    for (curTerm = fa.m_Terms.begin(); curTerm != fa.m_Terms.end(); ++curTerm)

	lea	ecx, DWORD PTR $T5[ebp]
	push	ecx
	mov	ecx, DWORD PTR _fa$[ebp]
	add	ecx, 4
	call	?begin@?$vector@PAVFuzzyTerm@@V?$allocator@PAVFuzzyTerm@@@std@@@std@@QBE?AV?$_Vector_const_iterator@V?$_Vector_val@U?$_Simple_types@PAVFuzzyTerm@@@std@@@std@@@2@XZ ; std::vector<FuzzyTerm *,std::allocator<FuzzyTerm *> >::begin
	mov	DWORD PTR tv156[ebp], eax
	mov	edx, DWORD PTR tv156[ebp]
	push	edx
	lea	ecx, DWORD PTR _curTerm$[ebp]
	call	??4?$_Vector_const_iterator@V?$_Vector_val@U?$_Simple_types@PAVFuzzyTerm@@@std@@@std@@@std@@QAEAAV01@$$QAV01@@Z
	lea	ecx, DWORD PTR $T5[ebp]
	call	??1?$_Vector_const_iterator@V?$_Vector_val@U?$_Simple_types@PAVFuzzyTerm@@@std@@@std@@@std@@QAE@XZ
	jmp	SHORT $LN4@FzAND
$LN2@FzAND:
	lea	ecx, DWORD PTR _curTerm$[ebp]
	call	??E?$_Vector_const_iterator@V?$_Vector_val@U?$_Simple_types@PAVFuzzyTerm@@@std@@@std@@@std@@QAEAAV01@XZ ; std::_Vector_const_iterator<std::_Vector_val<std::_Simple_types<FuzzyTerm *> > >::operator++
$LN4@FzAND:
	lea	eax, DWORD PTR $T3[ebp]
	push	eax
	mov	ecx, DWORD PTR _fa$[ebp]
	add	ecx, 4
	call	?end@?$vector@PAVFuzzyTerm@@V?$allocator@PAVFuzzyTerm@@@std@@@std@@QBE?AV?$_Vector_const_iterator@V?$_Vector_val@U?$_Simple_types@PAVFuzzyTerm@@@std@@@std@@@2@XZ ; std::vector<FuzzyTerm *,std::allocator<FuzzyTerm *> >::end
	mov	DWORD PTR tv86[ebp], eax
	mov	ecx, DWORD PTR tv86[ebp]
	mov	DWORD PTR tv158[ebp], ecx
	mov	BYTE PTR __$EHRec$[ebp+8], 3
	mov	edx, DWORD PTR tv158[ebp]
	push	edx
	lea	ecx, DWORD PTR _curTerm$[ebp]
	call	??9?$_Vector_const_iterator@V?$_Vector_val@U?$_Simple_types@PAVFuzzyTerm@@@std@@@std@@@std@@QBE_NABV01@@Z ; std::_Vector_const_iterator<std::_Vector_val<std::_Simple_types<FuzzyTerm *> > >::operator!=
	mov	BYTE PTR $T4[ebp], al
	mov	BYTE PTR __$EHRec$[ebp+8], 2
	lea	ecx, DWORD PTR $T3[ebp]
	call	??1?$_Vector_const_iterator@V?$_Vector_val@U?$_Simple_types@PAVFuzzyTerm@@@std@@@std@@@std@@QAE@XZ
	movzx	eax, BYTE PTR $T4[ebp]
	test	eax, eax
	je	SHORT $LN3@FzAND

; 12   :    {
; 13   :      m_Terms.push_back((*curTerm)->Clone());

	lea	ecx, DWORD PTR _curTerm$[ebp]
	call	??D?$_Vector_const_iterator@V?$_Vector_val@U?$_Simple_types@PAVFuzzyTerm@@@std@@@std@@@std@@QBEABQAVFuzzyTerm@@XZ ; std::_Vector_const_iterator<std::_Vector_val<std::_Simple_types<FuzzyTerm *> > >::operator*
	mov	ecx, DWORD PTR [eax]
	mov	DWORD PTR tv146[ebp], ecx
	mov	edx, DWORD PTR tv146[ebp]
	mov	eax, DWORD PTR [edx]
	mov	esi, esp
	mov	ecx, DWORD PTR tv146[ebp]
	mov	edx, DWORD PTR [eax+4]
	call	edx
	cmp	esi, esp
	call	__RTC_CheckEsp
	mov	DWORD PTR $T2[ebp], eax
	lea	eax, DWORD PTR $T2[ebp]
	push	eax
	mov	ecx, DWORD PTR _this$[ebp]
	add	ecx, 4
	call	?push_back@?$vector@PAVFuzzyTerm@@V?$allocator@PAVFuzzyTerm@@@std@@@std@@QAEX$$QAPAVFuzzyTerm@@@Z ; std::vector<FuzzyTerm *,std::allocator<FuzzyTerm *> >::push_back

; 14   :    }

	jmp	SHORT $LN2@FzAND
$LN3@FzAND:

; 15   : }

	mov	BYTE PTR __$EHRec$[ebp+8], 1
	lea	ecx, DWORD PTR _curTerm$[ebp]
	call	??1?$_Vector_const_iterator@V?$_Vector_val@U?$_Simple_types@PAVFuzzyTerm@@@std@@@std@@@std@@QAE@XZ
	mov	DWORD PTR __$EHRec$[ebp+8], -1
	mov	eax, DWORD PTR _this$[ebp]
	push	edx
	mov	ecx, ebp
	push	eax
	lea	edx, DWORD PTR $LN14@FzAND
	call	@_RTC_CheckStackVars@8
	pop	eax
	pop	edx
	mov	ecx, DWORD PTR __$EHRec$[ebp]
	mov	DWORD PTR fs:0, ecx
	pop	ecx
	pop	edi
	pop	esi
	add	esp, 84					; 00000054H
	cmp	ebp, esp
	call	__RTC_CheckEsp
	mov	esp, ebp
	pop	ebp
	ret	4
$LN14@FzAND:
	DD	1
	DD	$LN13@FzAND
$LN13@FzAND:
	DD	-32					; ffffffe0H
	DD	12					; 0000000cH
	DD	$LN11@FzAND
$LN11@FzAND:
	DB	99					; 00000063H
	DB	117					; 00000075H
	DB	114					; 00000072H
	DB	84					; 00000054H
	DB	101					; 00000065H
	DB	114					; 00000072H
	DB	109					; 0000006dH
	DB	0
_TEXT	ENDS
;	COMDAT text$x
text$x	SEGMENT
__unwindfunclet$??0FzAND@@QAE@ABV0@@Z$0:
	mov	ecx, DWORD PTR _this$[ebp]
	jmp	??1FuzzyTerm@@UAE@XZ			; FuzzyTerm::~FuzzyTerm
__unwindfunclet$??0FzAND@@QAE@ABV0@@Z$1:
	mov	ecx, DWORD PTR _this$[ebp]
	add	ecx, 4
	jmp	??1?$vector@PAVFuzzyTerm@@V?$allocator@PAVFuzzyTerm@@@std@@@std@@QAE@XZ ; std::vector<FuzzyTerm *,std::allocator<FuzzyTerm *> >::~vector<FuzzyTerm *,std::allocator<FuzzyTerm *> >
__unwindfunclet$??0FzAND@@QAE@ABV0@@Z$2:
	lea	ecx, DWORD PTR _curTerm$[ebp]
	jmp	??1?$_Vector_const_iterator@V?$_Vector_val@U?$_Simple_types@PAVFuzzyTerm@@@std@@@std@@@std@@QAE@XZ
__unwindfunclet$??0FzAND@@QAE@ABV0@@Z$4:
	lea	ecx, DWORD PTR $T3[ebp]
	jmp	??1?$_Vector_const_iterator@V?$_Vector_val@U?$_Simple_types@PAVFuzzyTerm@@@std@@@std@@@std@@QAE@XZ
	int	3
	int	3
	int	3
	int	3
	int	3
__ehhandler$??0FzAND@@QAE@ABV0@@Z:
	npad	1
	npad	1
	mov	edx, DWORD PTR [esp+8]
	lea	eax, DWORD PTR [edx+12]
	mov	ecx, DWORD PTR [edx-84]
	xor	ecx, eax
	call	@__security_check_cookie@4
	mov	eax, OFFSET __ehfuncinfo$??0FzAND@@QAE@ABV0@@Z
	jmp	___CxxFrameHandler3
text$x	ENDS
??0FzAND@@QAE@ABV0@@Z ENDP				; FzAND::FzAND
; Function compile flags: /Odtp /RTCsu
; File F:\Téléchargements\solution_lab_apprentissage - Copie\Common\fuzzy\FuzzyOperators.cpp
;	COMDAT ??1FzAND@@UAE@XZ
_TEXT	SEGMENT
tv147 = -72						; size = 4
$T2 = -68						; size = 4
$T3 = -64						; size = 12
$T4 = -49						; size = 1
$T5 = -48						; size = 12
_curTerm$ = -32						; size = 12
_this$ = -16						; size = 4
__$EHRec$ = -12						; size = 12
??1FzAND@@UAE@XZ PROC					; FzAND::~FzAND, COMDAT
; _this$ = ecx

; 43   : {

	push	ebp
	mov	ebp, esp
	push	-1
	push	__ehhandler$??1FzAND@@UAE@XZ
	mov	eax, DWORD PTR fs:0
	push	eax
	sub	esp, 60					; 0000003cH
	push	esi
	push	edi
	push	ecx
	lea	edi, DWORD PTR [ebp-72]
	mov	ecx, 15					; 0000000fH
	mov	eax, -858993460				; ccccccccH
	rep stosd
	pop	ecx
	mov	eax, DWORD PTR ___security_cookie
	xor	eax, ebp
	push	eax
	lea	eax, DWORD PTR __$EHRec$[ebp]
	mov	DWORD PTR fs:0, eax
	mov	DWORD PTR _this$[ebp], ecx
	mov	eax, DWORD PTR _this$[ebp]
	mov	DWORD PTR [eax], OFFSET ??_7FzAND@@6B@

; 44   :   std::vector<FuzzyTerm*>::iterator curTerm;

	lea	ecx, DWORD PTR _curTerm$[ebp]
	call	??0?$_Vector_iterator@V?$_Vector_val@U?$_Simple_types@PAVFuzzyTerm@@@std@@@std@@@std@@QAE@XZ

; 45   :   for (curTerm = m_Terms.begin(); curTerm != m_Terms.end(); ++curTerm)

	lea	ecx, DWORD PTR $T5[ebp]
	push	ecx
	mov	ecx, DWORD PTR _this$[ebp]
	add	ecx, 4
	call	?begin@?$vector@PAVFuzzyTerm@@V?$allocator@PAVFuzzyTerm@@@std@@@std@@QAE?AV?$_Vector_iterator@V?$_Vector_val@U?$_Simple_types@PAVFuzzyTerm@@@std@@@std@@@2@XZ ; std::vector<FuzzyTerm *,std::allocator<FuzzyTerm *> >::begin
	push	eax
	lea	ecx, DWORD PTR _curTerm$[ebp]
	call	??4?$_Vector_iterator@V?$_Vector_val@U?$_Simple_types@PAVFuzzyTerm@@@std@@@std@@@std@@QAEAAV01@$$QAV01@@Z
	lea	ecx, DWORD PTR $T5[ebp]
	call	??1?$_Vector_iterator@V?$_Vector_val@U?$_Simple_types@PAVFuzzyTerm@@@std@@@std@@@std@@QAE@XZ
	jmp	SHORT $LN4@FzAND
$LN2@FzAND:
	lea	ecx, DWORD PTR _curTerm$[ebp]
	call	??E?$_Vector_iterator@V?$_Vector_val@U?$_Simple_types@PAVFuzzyTerm@@@std@@@std@@@std@@QAEAAV01@XZ ; std::_Vector_iterator<std::_Vector_val<std::_Simple_types<FuzzyTerm *> > >::operator++
$LN4@FzAND:
	lea	edx, DWORD PTR $T3[ebp]
	push	edx
	mov	ecx, DWORD PTR _this$[ebp]
	add	ecx, 4
	call	?end@?$vector@PAVFuzzyTerm@@V?$allocator@PAVFuzzyTerm@@@std@@@std@@QAE?AV?$_Vector_iterator@V?$_Vector_val@U?$_Simple_types@PAVFuzzyTerm@@@std@@@std@@@2@XZ ; std::vector<FuzzyTerm *,std::allocator<FuzzyTerm *> >::end
	push	eax
	lea	ecx, DWORD PTR _curTerm$[ebp]
	call	??9?$_Vector_const_iterator@V?$_Vector_val@U?$_Simple_types@PAVFuzzyTerm@@@std@@@std@@@std@@QBE_NABV01@@Z ; std::_Vector_const_iterator<std::_Vector_val<std::_Simple_types<FuzzyTerm *> > >::operator!=
	mov	BYTE PTR $T4[ebp], al
	lea	ecx, DWORD PTR $T3[ebp]
	call	??1?$_Vector_iterator@V?$_Vector_val@U?$_Simple_types@PAVFuzzyTerm@@@std@@@std@@@std@@QAE@XZ
	movzx	eax, BYTE PTR $T4[ebp]
	test	eax, eax
	je	SHORT $LN3@FzAND

; 46   :   {
; 47   :     delete *curTerm;

	lea	ecx, DWORD PTR _curTerm$[ebp]
	call	??D?$_Vector_iterator@V?$_Vector_val@U?$_Simple_types@PAVFuzzyTerm@@@std@@@std@@@std@@QBEAAPAVFuzzyTerm@@XZ ; std::_Vector_iterator<std::_Vector_val<std::_Simple_types<FuzzyTerm *> > >::operator*
	mov	ecx, DWORD PTR [eax]
	mov	DWORD PTR $T2[ebp], ecx
	cmp	DWORD PTR $T2[ebp], 0
	je	SHORT $LN6@FzAND
	mov	esi, esp
	push	1
	mov	edx, DWORD PTR $T2[ebp]
	mov	eax, DWORD PTR [edx]
	mov	ecx, DWORD PTR $T2[ebp]
	mov	edx, DWORD PTR [eax]
	call	edx
	cmp	esi, esp
	call	__RTC_CheckEsp
	mov	DWORD PTR tv147[ebp], eax
	jmp	SHORT $LN7@FzAND
$LN6@FzAND:
	mov	DWORD PTR tv147[ebp], 0
$LN7@FzAND:

; 48   :   }

	jmp	SHORT $LN2@FzAND
$LN3@FzAND:

; 49   : }

	lea	ecx, DWORD PTR _curTerm$[ebp]
	call	??1?$_Vector_iterator@V?$_Vector_val@U?$_Simple_types@PAVFuzzyTerm@@@std@@@std@@@std@@QAE@XZ
	mov	ecx, DWORD PTR _this$[ebp]
	add	ecx, 4
	call	??1?$vector@PAVFuzzyTerm@@V?$allocator@PAVFuzzyTerm@@@std@@@std@@QAE@XZ ; std::vector<FuzzyTerm *,std::allocator<FuzzyTerm *> >::~vector<FuzzyTerm *,std::allocator<FuzzyTerm *> >
	mov	ecx, DWORD PTR _this$[ebp]
	call	??1FuzzyTerm@@UAE@XZ			; FuzzyTerm::~FuzzyTerm
	push	edx
	mov	ecx, ebp
	push	eax
	lea	edx, DWORD PTR $LN11@FzAND
	call	@_RTC_CheckStackVars@8
	pop	eax
	pop	edx
	mov	ecx, DWORD PTR __$EHRec$[ebp]
	mov	DWORD PTR fs:0, ecx
	pop	ecx
	pop	edi
	pop	esi
	add	esp, 72					; 00000048H
	cmp	ebp, esp
	call	__RTC_CheckEsp
	mov	esp, ebp
	pop	ebp
	ret	0
$LN11@FzAND:
	DD	1
	DD	$LN10@FzAND
$LN10@FzAND:
	DD	-32					; ffffffe0H
	DD	12					; 0000000cH
	DD	$LN8@FzAND
$LN8@FzAND:
	DB	99					; 00000063H
	DB	117					; 00000075H
	DB	114					; 00000072H
	DB	84					; 00000054H
	DB	101					; 00000065H
	DB	114					; 00000072H
	DB	109					; 0000006dH
	DB	0
	int	3
	int	3
	int	3
	int	3
	int	3
_TEXT	ENDS
;	COMDAT text$x
text$x	SEGMENT
__ehhandler$??1FzAND@@UAE@XZ:
	npad	1
	npad	1
	mov	edx, DWORD PTR [esp+8]
	lea	eax, DWORD PTR [edx+12]
	mov	ecx, DWORD PTR [edx-72]
	xor	ecx, eax
	call	@__security_check_cookie@4
	mov	eax, OFFSET __ehfuncinfo$??1FzAND@@UAE@XZ
	jmp	___CxxFrameHandler3
text$x	ENDS
??1FzAND@@UAE@XZ ENDP					; FzAND::~FzAND
; Function compile flags: /Odtp /RTCsu
; File C:\Program Files (x86)\Microsoft Visual Studio\2019\Community\VC\Tools\MSVC\14.27.29110\include\xmemory
;	COMDAT ?_Get_first@?$_Compressed_pair@V?$allocator@PAVFuzzyTerm@@@std@@V?$_Vector_val@U?$_Simple_types@PAVFuzzyTerm@@@std@@@2@$00@std@@QBEABV?$allocator@PAVFuzzyTerm@@@2@XZ
_TEXT	SEGMENT
_this$ = -4						; size = 4
?_Get_first@?$_Compressed_pair@V?$allocator@PAVFuzzyTerm@@@std@@V?$_Vector_val@U?$_Simple_types@PAVFuzzyTerm@@@std@@@2@$00@std@@QBEABV?$allocator@PAVFuzzyTerm@@@2@XZ PROC ; std::_Compressed_pair<std::allocator<FuzzyTerm *>,std::_Vector_val<std::_Simple_types<FuzzyTerm *> >,1>::_Get_first, COMDAT
; _this$ = ecx

; 1347 :     constexpr const _Ty1& _Get_first() const noexcept {

	push	ebp
	mov	ebp, esp
	push	ecx
	mov	DWORD PTR [ebp-4], -858993460		; ccccccccH
	mov	DWORD PTR _this$[ebp], ecx

; 1348 :         return *this;

	mov	eax, DWORD PTR _this$[ebp]

; 1349 :     }

	mov	esp, ebp
	pop	ebp
	ret	0
?_Get_first@?$_Compressed_pair@V?$allocator@PAVFuzzyTerm@@@std@@V?$_Vector_val@U?$_Simple_types@PAVFuzzyTerm@@@std@@@2@$00@std@@QBEABV?$allocator@PAVFuzzyTerm@@@2@XZ ENDP ; std::_Compressed_pair<std::allocator<FuzzyTerm *>,std::_Vector_val<std::_Simple_types<FuzzyTerm *> >,1>::_Get_first
_TEXT	ENDS
; Function compile flags: /Odtp /RTCsu
; File C:\Program Files (x86)\Microsoft Visual Studio\2019\Community\VC\Tools\MSVC\14.27.29110\include\xmemory
;	COMDAT ?_Get_first@?$_Compressed_pair@V?$allocator@PAVFuzzyTerm@@@std@@V?$_Vector_val@U?$_Simple_types@PAVFuzzyTerm@@@std@@@2@$00@std@@QAEAAV?$allocator@PAVFuzzyTerm@@@2@XZ
_TEXT	SEGMENT
_this$ = -4						; size = 4
?_Get_first@?$_Compressed_pair@V?$allocator@PAVFuzzyTerm@@@std@@V?$_Vector_val@U?$_Simple_types@PAVFuzzyTerm@@@std@@@2@$00@std@@QAEAAV?$allocator@PAVFuzzyTerm@@@2@XZ PROC ; std::_Compressed_pair<std::allocator<FuzzyTerm *>,std::_Vector_val<std::_Simple_types<FuzzyTerm *> >,1>::_Get_first, COMDAT
; _this$ = ecx

; 1343 :     constexpr _Ty1& _Get_first() noexcept {

	push	ebp
	mov	ebp, esp
	push	ecx
	mov	DWORD PTR [ebp-4], -858993460		; ccccccccH
	mov	DWORD PTR _this$[ebp], ecx

; 1344 :         return *this;

	mov	eax, DWORD PTR _this$[ebp]

; 1345 :     }

	mov	esp, ebp
	pop	ebp
	ret	0
?_Get_first@?$_Compressed_pair@V?$allocator@PAVFuzzyTerm@@@std@@V?$_Vector_val@U?$_Simple_types@PAVFuzzyTerm@@@std@@@2@$00@std@@QAEAAV?$allocator@PAVFuzzyTerm@@@2@XZ ENDP ; std::_Compressed_pair<std::allocator<FuzzyTerm *>,std::_Vector_val<std::_Simple_types<FuzzyTerm *> >,1>::_Get_first
_TEXT	ENDS
; Function compile flags: /Odtp /RTCsu
; File C:\Program Files (x86)\Microsoft Visual Studio\2019\Community\VC\Tools\MSVC\14.27.29110\include\vector
;	COMDAT ??0?$_Vector_val@U?$_Simple_types@PAVFuzzyTerm@@@std@@@std@@QAE@XZ
_TEXT	SEGMENT
_this$ = -4						; size = 4
??0?$_Vector_val@U?$_Simple_types@PAVFuzzyTerm@@@std@@@std@@QAE@XZ PROC ; std::_Vector_val<std::_Simple_types<FuzzyTerm *> >::_Vector_val<std::_Simple_types<FuzzyTerm *> >, COMDAT
; _this$ = ecx

; 375  :     _Vector_val() noexcept : _Myfirst(), _Mylast(), _Myend() {}

	push	ebp
	mov	ebp, esp
	push	ecx
	mov	DWORD PTR [ebp-4], -858993460		; ccccccccH
	mov	DWORD PTR _this$[ebp], ecx
	mov	ecx, DWORD PTR _this$[ebp]
	call	??0_Container_base12@std@@QAE@XZ	; std::_Container_base12::_Container_base12
	mov	eax, DWORD PTR _this$[ebp]
	mov	DWORD PTR [eax+4], 0
	mov	ecx, DWORD PTR _this$[ebp]
	mov	DWORD PTR [ecx+8], 0
	mov	edx, DWORD PTR _this$[ebp]
	mov	DWORD PTR [edx+12], 0
	mov	eax, DWORD PTR _this$[ebp]
	add	esp, 4
	cmp	ebp, esp
	call	__RTC_CheckEsp
	mov	esp, ebp
	pop	ebp
	ret	0
??0?$_Vector_val@U?$_Simple_types@PAVFuzzyTerm@@@std@@@std@@QAE@XZ ENDP ; std::_Vector_val<std::_Simple_types<FuzzyTerm *> >::_Vector_val<std::_Simple_types<FuzzyTerm *> >
_TEXT	ENDS
; Function compile flags: /Odtp /RTCsu
; File C:\Program Files (x86)\Microsoft Visual Studio\2019\Community\VC\Tools\MSVC\14.27.29110\include\vector
;	COMDAT ?_Getal@?$vector@PAVFuzzyTerm@@V?$allocator@PAVFuzzyTerm@@@std@@@std@@ABEABV?$allocator@PAVFuzzyTerm@@@2@XZ
_TEXT	SEGMENT
_this$ = -4						; size = 4
?_Getal@?$vector@PAVFuzzyTerm@@V?$allocator@PAVFuzzyTerm@@@std@@@std@@ABEABV?$allocator@PAVFuzzyTerm@@@2@XZ PROC ; std::vector<FuzzyTerm *,std::allocator<FuzzyTerm *> >::_Getal, COMDAT
; _this$ = ecx

; 1735 :     const _Alty& _Getal() const noexcept {

	push	ebp
	mov	ebp, esp
	push	ecx
	mov	DWORD PTR [ebp-4], -858993460		; ccccccccH
	mov	DWORD PTR _this$[ebp], ecx

; 1736 :         return _Mypair._Get_first();

	mov	ecx, DWORD PTR _this$[ebp]
	call	?_Get_first@?$_Compressed_pair@V?$allocator@PAVFuzzyTerm@@@std@@V?$_Vector_val@U?$_Simple_types@PAVFuzzyTerm@@@std@@@2@$00@std@@QBEABV?$allocator@PAVFuzzyTerm@@@2@XZ ; std::_Compressed_pair<std::allocator<FuzzyTerm *>,std::_Vector_val<std::_Simple_types<FuzzyTerm *> >,1>::_Get_first

; 1737 :     }

	add	esp, 4
	cmp	ebp, esp
	call	__RTC_CheckEsp
	mov	esp, ebp
	pop	ebp
	ret	0
?_Getal@?$vector@PAVFuzzyTerm@@V?$allocator@PAVFuzzyTerm@@@std@@@std@@ABEABV?$allocator@PAVFuzzyTerm@@@2@XZ ENDP ; std::vector<FuzzyTerm *,std::allocator<FuzzyTerm *> >::_Getal
_TEXT	ENDS
; Function compile flags: /Odtp /RTCsu
; File C:\Program Files (x86)\Microsoft Visual Studio\2019\Community\VC\Tools\MSVC\14.27.29110\include\vector
;	COMDAT ?_Getal@?$vector@PAVFuzzyTerm@@V?$allocator@PAVFuzzyTerm@@@std@@@std@@AAEAAV?$allocator@PAVFuzzyTerm@@@2@XZ
_TEXT	SEGMENT
_this$ = -4						; size = 4
?_Getal@?$vector@PAVFuzzyTerm@@V?$allocator@PAVFuzzyTerm@@@std@@@std@@AAEAAV?$allocator@PAVFuzzyTerm@@@2@XZ PROC ; std::vector<FuzzyTerm *,std::allocator<FuzzyTerm *> >::_Getal, COMDAT
; _this$ = ecx

; 1731 :     _Alty& _Getal() noexcept {

	push	ebp
	mov	ebp, esp
	push	ecx
	mov	DWORD PTR [ebp-4], -858993460		; ccccccccH
	mov	DWORD PTR _this$[ebp], ecx

; 1732 :         return _Mypair._Get_first();

	mov	ecx, DWORD PTR _this$[ebp]
	call	?_Get_first@?$_Compressed_pair@V?$allocator@PAVFuzzyTerm@@@std@@V?$_Vector_val@U?$_Simple_types@PAVFuzzyTerm@@@std@@@2@$00@std@@QAEAAV?$allocator@PAVFuzzyTerm@@@2@XZ ; std::_Compressed_pair<std::allocator<FuzzyTerm *>,std::_Vector_val<std::_Simple_types<FuzzyTerm *> >,1>::_Get_first

; 1733 :     }

	add	esp, 4
	cmp	ebp, esp
	call	__RTC_CheckEsp
	mov	esp, ebp
	pop	ebp
	ret	0
?_Getal@?$vector@PAVFuzzyTerm@@V?$allocator@PAVFuzzyTerm@@@std@@@std@@AAEAAV?$allocator@PAVFuzzyTerm@@@2@XZ ENDP ; std::vector<FuzzyTerm *,std::allocator<FuzzyTerm *> >::_Getal
_TEXT	ENDS
; Function compile flags: /Odtp /RTCsu
; File C:\Program Files (x86)\Microsoft Visual Studio\2019\Community\VC\Tools\MSVC\14.27.29110\include\vector
;	COMDAT ?_Orphan_range@?$vector@PAVFuzzyTerm@@V?$allocator@PAVFuzzyTerm@@@std@@@std@@ABEXPAPAVFuzzyTerm@@0@Z
_TEXT	SEGMENT
__Pnextptr$1 = -24					; size = 4
__Pnext$ = -20						; size = 4
__Lock$ = -12						; size = 4
_this$ = -4						; size = 4
__First$ = 8						; size = 4
__Last$ = 12						; size = 4
?_Orphan_range@?$vector@PAVFuzzyTerm@@V?$allocator@PAVFuzzyTerm@@@std@@@std@@ABEXPAPAVFuzzyTerm@@0@Z PROC ; std::vector<FuzzyTerm *,std::allocator<FuzzyTerm *> >::_Orphan_range, COMDAT
; _this$ = ecx

; 1711 :     void _Orphan_range(pointer _First, pointer _Last) const { // orphan iterators within specified (inclusive) range

	push	ebp
	mov	ebp, esp
	sub	esp, 24					; 00000018H
	mov	eax, -858993460				; ccccccccH
	mov	DWORD PTR [ebp-24], eax
	mov	DWORD PTR [ebp-20], eax
	mov	DWORD PTR [ebp-16], eax
	mov	DWORD PTR [ebp-12], eax
	mov	DWORD PTR [ebp-8], eax
	mov	DWORD PTR [ebp-4], eax
	mov	DWORD PTR _this$[ebp], ecx

; 1712 : #if _ITERATOR_DEBUG_LEVEL == 2
; 1713 :         _Lockit _Lock(_LOCK_DEBUG);

	push	3
	lea	ecx, DWORD PTR __Lock$[ebp]
	call	??0_Lockit@std@@QAE@H@Z			; std::_Lockit::_Lockit

; 1714 : 
; 1715 :         _Iterator_base12** _Pnext = &_Mypair._Myval2._Myproxy->_Myfirstiter;

	mov	eax, DWORD PTR _this$[ebp]
	mov	ecx, DWORD PTR [eax]
	add	ecx, 4
	mov	DWORD PTR __Pnext$[ebp], ecx
$LN2@Orphan_ran:

; 1716 :         while (*_Pnext) {

	mov	edx, DWORD PTR __Pnext$[ebp]
	cmp	DWORD PTR [edx], 0
	je	SHORT $LN3@Orphan_ran

; 1717 :             const auto _Pnextptr = static_cast<const_iterator&>(**_Pnext)._Ptr;

	mov	eax, DWORD PTR __Pnext$[ebp]
	mov	ecx, DWORD PTR [eax]
	mov	edx, DWORD PTR [ecx+8]
	mov	DWORD PTR __Pnextptr$1[ebp], edx

; 1718 :             if (_Pnextptr < _First || _Last < _Pnextptr) { // skip the iterator

	mov	eax, DWORD PTR __Pnextptr$1[ebp]
	cmp	eax, DWORD PTR __First$[ebp]
	jb	SHORT $LN6@Orphan_ran
	mov	ecx, DWORD PTR __Last$[ebp]
	cmp	ecx, DWORD PTR __Pnextptr$1[ebp]
	jae	SHORT $LN4@Orphan_ran
$LN6@Orphan_ran:

; 1719 :                 _Pnext = &(*_Pnext)->_Mynextiter;

	mov	edx, DWORD PTR __Pnext$[ebp]
	mov	eax, DWORD PTR [edx]
	add	eax, 4
	mov	DWORD PTR __Pnext$[ebp], eax

; 1720 :             } else { // orphan the iterator

	jmp	SHORT $LN5@Orphan_ran
$LN4@Orphan_ran:

; 1721 :                 (*_Pnext)->_Myproxy = nullptr;

	mov	ecx, DWORD PTR __Pnext$[ebp]
	mov	edx, DWORD PTR [ecx]
	mov	DWORD PTR [edx], 0

; 1722 :                 *_Pnext             = (*_Pnext)->_Mynextiter;

	mov	eax, DWORD PTR __Pnext$[ebp]
	mov	ecx, DWORD PTR [eax]
	mov	edx, DWORD PTR __Pnext$[ebp]
	mov	eax, DWORD PTR [ecx+4]
	mov	DWORD PTR [edx], eax
$LN5@Orphan_ran:

; 1723 :             }
; 1724 :         }

	jmp	SHORT $LN2@Orphan_ran
$LN3@Orphan_ran:

; 1725 : #else // ^^^ _ITERATOR_DEBUG_LEVEL == 2 ^^^ // vvv _ITERATOR_DEBUG_LEVEL != 2 vvv
; 1726 :         (void) _First;
; 1727 :         (void) _Last;
; 1728 : #endif // _ITERATOR_DEBUG_LEVEL == 2
; 1729 :     }

	lea	ecx, DWORD PTR __Lock$[ebp]
	call	??1_Lockit@std@@QAE@XZ			; std::_Lockit::~_Lockit
	push	edx
	mov	ecx, ebp
	push	eax
	lea	edx, DWORD PTR $LN11@Orphan_ran
	call	@_RTC_CheckStackVars@8
	pop	eax
	pop	edx
	add	esp, 24					; 00000018H
	cmp	ebp, esp
	call	__RTC_CheckEsp
	mov	esp, ebp
	pop	ebp
	ret	8
$LN11@Orphan_ran:
	DD	1
	DD	$LN10@Orphan_ran
$LN10@Orphan_ran:
	DD	-12					; fffffff4H
	DD	4
	DD	$LN9@Orphan_ran
$LN9@Orphan_ran:
	DB	95					; 0000005fH
	DB	76					; 0000004cH
	DB	111					; 0000006fH
	DB	99					; 00000063H
	DB	107					; 0000006bH
	DB	0
?_Orphan_range@?$vector@PAVFuzzyTerm@@V?$allocator@PAVFuzzyTerm@@@std@@@std@@ABEXPAPAVFuzzyTerm@@0@Z ENDP ; std::vector<FuzzyTerm *,std::allocator<FuzzyTerm *> >::_Orphan_range
_TEXT	ENDS
; Function compile flags: /Odtp /RTCsu
; File C:\Program Files (x86)\Microsoft Visual Studio\2019\Community\VC\Tools\MSVC\14.27.29110\include\vector
;	COMDAT ?_Xlength@?$vector@PAVFuzzyTerm@@V?$allocator@PAVFuzzyTerm@@@std@@@std@@CAXXZ
_TEXT	SEGMENT
?_Xlength@?$vector@PAVFuzzyTerm@@V?$allocator@PAVFuzzyTerm@@@std@@@std@@CAXXZ PROC ; std::vector<FuzzyTerm *,std::allocator<FuzzyTerm *> >::_Xlength, COMDAT

; 1703 :     [[noreturn]] static void _Xlength() {

	push	ebp
	mov	ebp, esp

; 1704 :         _Xlength_error("vector too long");

	push	OFFSET ??_C@_0BA@FOIKENOD@vector?5too?5long@
	call	?_Xlength_error@std@@YAXPBD@Z		; std::_Xlength_error
$LN2@Xlength:

; 1705 :     }

	cmp	ebp, esp
	call	__RTC_CheckEsp
	pop	ebp
	ret	0
?_Xlength@?$vector@PAVFuzzyTerm@@V?$allocator@PAVFuzzyTerm@@@std@@@std@@CAXXZ ENDP ; std::vector<FuzzyTerm *,std::allocator<FuzzyTerm *> >::_Xlength
_TEXT	ENDS
; Function compile flags: /Odtp /RTCsu
; File C:\Program Files (x86)\Microsoft Visual Studio\2019\Community\VC\Tools\MSVC\14.27.29110\include\vector
;	COMDAT ?_Tidy@?$vector@PAVFuzzyTerm@@V?$allocator@PAVFuzzyTerm@@@std@@@std@@AAEXXZ
_TEXT	SEGMENT
__Myend$ = -32						; size = 4
__Mylast$ = -28						; size = 4
__Myfirst$ = -24					; size = 4
__My_data$ = -20					; size = 4
_this$ = -16						; size = 4
__$EHRec$ = -12						; size = 12
?_Tidy@?$vector@PAVFuzzyTerm@@V?$allocator@PAVFuzzyTerm@@@std@@@std@@AAEXXZ PROC ; std::vector<FuzzyTerm *,std::allocator<FuzzyTerm *> >::_Tidy, COMDAT
; _this$ = ecx

; 1685 :     void _Tidy() noexcept { // free all storage

	push	ebp
	mov	ebp, esp
	push	-1
	push	__ehhandler$?_Tidy@?$vector@PAVFuzzyTerm@@V?$allocator@PAVFuzzyTerm@@@std@@@std@@AAEXXZ
	mov	eax, DWORD PTR fs:0
	push	eax
	sub	esp, 20					; 00000014H
	mov	eax, -858993460				; ccccccccH
	mov	DWORD PTR [ebp-32], eax
	mov	DWORD PTR [ebp-28], eax
	mov	DWORD PTR [ebp-24], eax
	mov	DWORD PTR [ebp-20], eax
	mov	DWORD PTR [ebp-16], eax
	mov	eax, DWORD PTR ___security_cookie
	xor	eax, ebp
	push	eax
	lea	eax, DWORD PTR __$EHRec$[ebp]
	mov	DWORD PTR fs:0, eax
	mov	DWORD PTR _this$[ebp], ecx

; 1686 :         auto& _My_data    = _Mypair._Myval2;

	mov	eax, DWORD PTR _this$[ebp]
	mov	DWORD PTR __My_data$[ebp], eax

; 1687 :         pointer& _Myfirst = _My_data._Myfirst;

	mov	ecx, DWORD PTR __My_data$[ebp]
	add	ecx, 4
	mov	DWORD PTR __Myfirst$[ebp], ecx

; 1688 :         pointer& _Mylast  = _My_data._Mylast;

	mov	edx, DWORD PTR __My_data$[ebp]
	add	edx, 8
	mov	DWORD PTR __Mylast$[ebp], edx

; 1689 :         pointer& _Myend   = _My_data._Myend;

	mov	eax, DWORD PTR __My_data$[ebp]
	add	eax, 12					; 0000000cH
	mov	DWORD PTR __Myend$[ebp], eax

; 1690 : 
; 1691 :         _My_data._Orphan_all();

	mov	ecx, DWORD PTR __My_data$[ebp]
	call	?_Orphan_all@_Container_base12@std@@QAEXXZ ; std::_Container_base12::_Orphan_all

; 1692 : 
; 1693 :         if (_Myfirst) { // destroy and deallocate old array

	mov	ecx, DWORD PTR __Myfirst$[ebp]
	cmp	DWORD PTR [ecx], 0
	je	SHORT $LN3@Tidy

; 1694 :             _Destroy(_Myfirst, _Mylast);

	mov	edx, DWORD PTR __Mylast$[ebp]
	mov	eax, DWORD PTR [edx]
	push	eax
	mov	ecx, DWORD PTR __Myfirst$[ebp]
	mov	edx, DWORD PTR [ecx]
	push	edx
	mov	ecx, DWORD PTR _this$[ebp]
	call	?_Destroy@?$vector@PAVFuzzyTerm@@V?$allocator@PAVFuzzyTerm@@@std@@@std@@AAEXPAPAVFuzzyTerm@@0@Z ; std::vector<FuzzyTerm *,std::allocator<FuzzyTerm *> >::_Destroy

; 1695 :             _Getal().deallocate(_Myfirst, static_cast<size_type>(_Myend - _Myfirst));

	mov	eax, DWORD PTR __Myend$[ebp]
	mov	ecx, DWORD PTR __Myfirst$[ebp]
	mov	edx, DWORD PTR [eax]
	sub	edx, DWORD PTR [ecx]
	sar	edx, 2
	push	edx
	mov	eax, DWORD PTR __Myfirst$[ebp]
	mov	ecx, DWORD PTR [eax]
	push	ecx
	mov	ecx, DWORD PTR _this$[ebp]
	call	?_Getal@?$vector@PAVFuzzyTerm@@V?$allocator@PAVFuzzyTerm@@@std@@@std@@AAEAAV?$allocator@PAVFuzzyTerm@@@2@XZ ; std::vector<FuzzyTerm *,std::allocator<FuzzyTerm *> >::_Getal
	mov	ecx, eax
	call	?deallocate@?$allocator@PAVFuzzyTerm@@@std@@QAEXQAPAVFuzzyTerm@@I@Z ; std::allocator<FuzzyTerm *>::deallocate

; 1696 : 
; 1697 :             _Myfirst = pointer();

	mov	edx, DWORD PTR __Myfirst$[ebp]
	mov	DWORD PTR [edx], 0

; 1698 :             _Mylast  = pointer();

	mov	eax, DWORD PTR __Mylast$[ebp]
	mov	DWORD PTR [eax], 0

; 1699 :             _Myend   = pointer();

	mov	ecx, DWORD PTR __Myend$[ebp]
	mov	DWORD PTR [ecx], 0
$LN3@Tidy:

; 1700 :         }
; 1701 :     }

	mov	ecx, DWORD PTR __$EHRec$[ebp]
	mov	DWORD PTR fs:0, ecx
	pop	ecx
	add	esp, 32					; 00000020H
	cmp	ebp, esp
	call	__RTC_CheckEsp
	mov	esp, ebp
	pop	ebp
	ret	0
	int	3
	int	3
	int	3
	int	3
	int	3
_TEXT	ENDS
;	COMDAT text$x
text$x	SEGMENT
__ehhandler$?_Tidy@?$vector@PAVFuzzyTerm@@V?$allocator@PAVFuzzyTerm@@@std@@@std@@AAEXXZ:
	npad	1
	npad	1
	mov	edx, DWORD PTR [esp+8]
	lea	eax, DWORD PTR [edx+12]
	mov	ecx, DWORD PTR [edx-24]
	xor	ecx, eax
	call	@__security_check_cookie@4
	mov	eax, OFFSET __ehfuncinfo$?_Tidy@?$vector@PAVFuzzyTerm@@V?$allocator@PAVFuzzyTerm@@@std@@@std@@AAEXXZ
	jmp	___CxxFrameHandler3
text$x	ENDS
?_Tidy@?$vector@PAVFuzzyTerm@@V?$allocator@PAVFuzzyTerm@@@std@@@std@@AAEXXZ ENDP ; std::vector<FuzzyTerm *,std::allocator<FuzzyTerm *> >::_Tidy
; Function compile flags: /Odtp /RTCsu
; File C:\Program Files (x86)\Microsoft Visual Studio\2019\Community\VC\Tools\MSVC\14.27.29110\include\vector
;	COMDAT ?_Change_array@?$vector@PAVFuzzyTerm@@V?$allocator@PAVFuzzyTerm@@@std@@@std@@AAEXQAPAVFuzzyTerm@@II@Z
_TEXT	SEGMENT
__Myend$ = -20						; size = 4
__Mylast$ = -16						; size = 4
__Myfirst$ = -12					; size = 4
__My_data$ = -8						; size = 4
_this$ = -4						; size = 4
__Newvec$ = 8						; size = 4
__Newsize$ = 12						; size = 4
__Newcapacity$ = 16					; size = 4
?_Change_array@?$vector@PAVFuzzyTerm@@V?$allocator@PAVFuzzyTerm@@@std@@@std@@AAEXQAPAVFuzzyTerm@@II@Z PROC ; std::vector<FuzzyTerm *,std::allocator<FuzzyTerm *> >::_Change_array, COMDAT
; _this$ = ecx

; 1666 :     void _Change_array(const pointer _Newvec, const size_type _Newsize, const size_type _Newcapacity) {

	push	ebp
	mov	ebp, esp
	sub	esp, 20					; 00000014H
	mov	eax, -858993460				; ccccccccH
	mov	DWORD PTR [ebp-20], eax
	mov	DWORD PTR [ebp-16], eax
	mov	DWORD PTR [ebp-12], eax
	mov	DWORD PTR [ebp-8], eax
	mov	DWORD PTR [ebp-4], eax
	mov	DWORD PTR _this$[ebp], ecx

; 1667 :         // orphan all iterators, discard old array, acquire new array
; 1668 :         auto& _My_data    = _Mypair._Myval2;

	mov	eax, DWORD PTR _this$[ebp]
	mov	DWORD PTR __My_data$[ebp], eax

; 1669 :         pointer& _Myfirst = _My_data._Myfirst;

	mov	ecx, DWORD PTR __My_data$[ebp]
	add	ecx, 4
	mov	DWORD PTR __Myfirst$[ebp], ecx

; 1670 :         pointer& _Mylast  = _My_data._Mylast;

	mov	edx, DWORD PTR __My_data$[ebp]
	add	edx, 8
	mov	DWORD PTR __Mylast$[ebp], edx

; 1671 :         pointer& _Myend   = _My_data._Myend;

	mov	eax, DWORD PTR __My_data$[ebp]
	add	eax, 12					; 0000000cH
	mov	DWORD PTR __Myend$[ebp], eax

; 1672 : 
; 1673 :         _My_data._Orphan_all();

	mov	ecx, DWORD PTR __My_data$[ebp]
	call	?_Orphan_all@_Container_base12@std@@QAEXXZ ; std::_Container_base12::_Orphan_all

; 1674 : 
; 1675 :         if (_Myfirst) { // destroy and deallocate old array

	mov	ecx, DWORD PTR __Myfirst$[ebp]
	cmp	DWORD PTR [ecx], 0
	je	SHORT $LN2@Change_arr

; 1676 :             _Destroy(_Myfirst, _Mylast);

	mov	edx, DWORD PTR __Mylast$[ebp]
	mov	eax, DWORD PTR [edx]
	push	eax
	mov	ecx, DWORD PTR __Myfirst$[ebp]
	mov	edx, DWORD PTR [ecx]
	push	edx
	mov	ecx, DWORD PTR _this$[ebp]
	call	?_Destroy@?$vector@PAVFuzzyTerm@@V?$allocator@PAVFuzzyTerm@@@std@@@std@@AAEXPAPAVFuzzyTerm@@0@Z ; std::vector<FuzzyTerm *,std::allocator<FuzzyTerm *> >::_Destroy

; 1677 :             _Getal().deallocate(_Myfirst, static_cast<size_type>(_Myend - _Myfirst));

	mov	eax, DWORD PTR __Myend$[ebp]
	mov	ecx, DWORD PTR __Myfirst$[ebp]
	mov	edx, DWORD PTR [eax]
	sub	edx, DWORD PTR [ecx]
	sar	edx, 2
	push	edx
	mov	eax, DWORD PTR __Myfirst$[ebp]
	mov	ecx, DWORD PTR [eax]
	push	ecx
	mov	ecx, DWORD PTR _this$[ebp]
	call	?_Getal@?$vector@PAVFuzzyTerm@@V?$allocator@PAVFuzzyTerm@@@std@@@std@@AAEAAV?$allocator@PAVFuzzyTerm@@@2@XZ ; std::vector<FuzzyTerm *,std::allocator<FuzzyTerm *> >::_Getal
	mov	ecx, eax
	call	?deallocate@?$allocator@PAVFuzzyTerm@@@std@@QAEXQAPAVFuzzyTerm@@I@Z ; std::allocator<FuzzyTerm *>::deallocate
$LN2@Change_arr:

; 1678 :         }
; 1679 : 
; 1680 :         _Myfirst = _Newvec;

	mov	edx, DWORD PTR __Myfirst$[ebp]
	mov	eax, DWORD PTR __Newvec$[ebp]
	mov	DWORD PTR [edx], eax

; 1681 :         _Mylast  = _Newvec + _Newsize;

